; ModuleID = '/home/brian/llvm/lib/Transforms/cs380c-devirtualization/Test.cpp'
target datalayout = "e-p:64:64:64-i1:8:8-i8:8:8-i16:16:16-i32:32:32-i64:64:64-f32:32:32-f64:64:64-v64:64:64-v128:128:128-a0:0:64-s0:64:64-f80:128:128-n8:16:32:64"
target triple = "x86_64-unknown-linux-gnu"

%0 = type { i8*, i8* }
%1 = type { i8*, i8*, i32, i32, i8*, i64, i8*, i64 }
%2 = type { i8*, i8*, i8* }
%3 = type { i32, void ()* }
%class.A = type { i32 (...)**, i32 }
%class.A2 = type { i32 (...)** }
%class.B = type { [12 x i8], [4 x i8], [8 x i8] }
%class.C = type { [24 x i8] }
%class.D = type { [24 x i8] }
%class.Z = type { i32 (...)** }
%"class.std::basic_ostream" = type { i32 (...)**, [264 x i8] }
%"class.std::basic_streambuf" = type { i32 (...)**, i8*, i8*, i8*, i8*, i8*, i8*, %"class.std::locale" }
%"class.std::ctype" = type { [12 x i8], %struct.__locale_struct*, i8, i32*, i32*, i16*, i8, [256 x i8], [256 x i8], i8 }
%"class.std::ios_base" = type { i32 (...)**, i64, i64, i32, i32, i32, %"struct.std::ios_base::_Callback_list"*, %"struct.std::ios_base::_Words", [8 x %"struct.std::ios_base::_Words"], i32, %"struct.std::ios_base::_Words"*, %"class.std::locale" }
%"class.std::ios_base::Init" = type { i8 }
%"class.std::locale" = type { %"class.std::locale::_Impl"* }
%"class.std::locale::_Impl" = type { i32, %class.A**, i64, %class.A**, i8** }
%"class.std::locale::facet" = type { i32 (...)**, i32 }
%"class.std::num_get" = type { [12 x i8], [4 x i8] }
%"class.std::num_put" = type { [12 x i8], [4 x i8] }
%"enum.std::_Ios_Fmtflags" = type i32
%"enum.std::_Ios_Iostate" = type i32
%"enum.std::ios_base::event" = type i32
%struct.__locale_struct = type { [13 x %struct.locale_data*], i16*, i32*, i32*, [13 x i8*] }
%struct.locale_data = type opaque
%"struct.std::ios_base::_Callback_list" = type { %"struct.std::ios_base::_Callback_list"*, void (i32, %"class.std::ios_base"*, i32)*, i32, i32 }
%"struct.std::ios_base::_Words" = type { i8*, i64 }

@_ZStL8__ioinit = internal global %"class.std::ios_base::Init" zeroinitializer, align 1
@__dso_handle = external global i8*
@_ZSt4cout = external global %"class.std::basic_ostream"
@.str = private unnamed_addr constant [6 x i8] c"Reg: \00"
@.str1 = private unnamed_addr constant [7 x i8] c"Virt: \00"
@.str2 = private unnamed_addr constant [9 x i8] c"Forced: \00"
@_ZTV1D = linkonce_odr unnamed_addr constant [10 x i8*] [i8* null, i8* bitcast (%2* @_ZTI1D to i8*), i8* bitcast (i8 (%class.C*)* @_ZN1D3fooEv to i8*), i8* bitcast (i8 (%class.B*, i8)* @_ZN1B3fooEc to i8*), i8* bitcast (i32 (%class.B*, i32)* @_ZN1B3fooEi to i8*), i8* bitcast (i32 (%class.A*, %class.A*)* @_ZN1AplES_ to i8*), i8* bitcast (i32 (%class.B*)* @_ZN1B3gooEv to i8*), i8* inttoptr (i64 -16 to i8*), i8* bitcast (%2* @_ZTI1D to i8*), i8* bitcast (i32 (%class.B*)* @_ZThn16_N1B3gooEv to i8*)]
@_ZTVN10__cxxabiv120__si_class_type_infoE = external global i8*
@_ZTS1D = linkonce_odr constant [3 x i8] c"1D\00"
@_ZTS1C = linkonce_odr constant [3 x i8] c"1C\00"
@_ZTVN10__cxxabiv121__vmi_class_type_infoE = external global i8*
@_ZTS1B = linkonce_odr constant [3 x i8] c"1B\00"
@_ZTVN10__cxxabiv117__class_type_infoE = external global i8*
@_ZTS1A = linkonce_odr constant [3 x i8] c"1A\00"
@_ZTI1A = linkonce_odr unnamed_addr constant %0 { i8* bitcast (i8** getelementptr inbounds (i8** @_ZTVN10__cxxabiv117__class_type_infoE, i64 2) to i8*), i8* getelementptr inbounds ([3 x i8]* @_ZTS1A, i32 0, i32 0) }
@_ZTS2A2 = linkonce_odr constant [4 x i8] c"2A2\00"
@_ZTI2A2 = linkonce_odr unnamed_addr constant %0 { i8* bitcast (i8** getelementptr inbounds (i8** @_ZTVN10__cxxabiv117__class_type_infoE, i64 2) to i8*), i8* getelementptr inbounds ([4 x i8]* @_ZTS2A2, i32 0, i32 0) }
@_ZTI1B = linkonce_odr unnamed_addr constant %1 { i8* bitcast (i8** getelementptr inbounds (i8** @_ZTVN10__cxxabiv121__vmi_class_type_infoE, i64 2) to i8*), i8* getelementptr inbounds ([3 x i8]* @_ZTS1B, i32 0, i32 0), i32 0, i32 2, i8* bitcast (%0* @_ZTI1A to i8*), i64 2, i8* bitcast (%0* @_ZTI2A2 to i8*), i64 4098 }
@_ZTI1C = linkonce_odr unnamed_addr constant %2 { i8* bitcast (i8** getelementptr inbounds (i8** @_ZTVN10__cxxabiv120__si_class_type_infoE, i64 2) to i8*), i8* getelementptr inbounds ([3 x i8]* @_ZTS1C, i32 0, i32 0), i8* bitcast (%1* @_ZTI1B to i8*) }
@_ZTI1D = linkonce_odr unnamed_addr constant %2 { i8* bitcast (i8** getelementptr inbounds (i8** @_ZTVN10__cxxabiv120__si_class_type_infoE, i64 2) to i8*), i8* getelementptr inbounds ([3 x i8]* @_ZTS1D, i32 0, i32 0), i8* bitcast (%2* @_ZTI1C to i8*) }
@_ZTV1C = linkonce_odr unnamed_addr constant [10 x i8*] [i8* null, i8* bitcast (%2* @_ZTI1C to i8*), i8* bitcast (i8 (%class.B*)* @_ZN1B3fooEv to i8*), i8* bitcast (i8 (%class.B*, i8)* @_ZN1B3fooEc to i8*), i8* bitcast (i32 (%class.B*, i32)* @_ZN1B3fooEi to i8*), i8* bitcast (i32 (%class.A*, %class.A*)* @_ZN1AplES_ to i8*), i8* bitcast (i32 (%class.B*)* @_ZN1B3gooEv to i8*), i8* inttoptr (i64 -16 to i8*), i8* bitcast (%2* @_ZTI1C to i8*), i8* bitcast (i32 (%class.B*)* @_ZThn16_N1B3gooEv to i8*)]
@_ZTV1B = linkonce_odr unnamed_addr constant [10 x i8*] [i8* null, i8* bitcast (%1* @_ZTI1B to i8*), i8* bitcast (i8 (%class.B*)* @_ZN1B3fooEv to i8*), i8* bitcast (i8 (%class.B*, i8)* @_ZN1B3fooEc to i8*), i8* bitcast (i32 (%class.B*, i32)* @_ZN1B3fooEi to i8*), i8* bitcast (i32 (%class.A*, %class.A*)* @_ZN1AplES_ to i8*), i8* bitcast (i32 (%class.B*)* @_ZN1B3gooEv to i8*), i8* inttoptr (i64 -16 to i8*), i8* bitcast (%1* @_ZTI1B to i8*), i8* bitcast (i32 (%class.B*)* @_ZThn16_N1B3gooEv to i8*)]
@_ZTV2A2 = linkonce_odr unnamed_addr constant [3 x i8*] [i8* null, i8* bitcast (%0* @_ZTI2A2 to i8*), i8* bitcast (i32 (%class.A2*)* @_ZN2A23gooEv to i8*)]
@_ZTV1A = linkonce_odr unnamed_addr constant [6 x i8*] [i8* null, i8* bitcast (%0* @_ZTI1A to i8*), i8* bitcast (i8 (%class.A*)* @_ZN1A3fooEv to i8*), i8* bitcast (i8 (%class.A*, i8)* @_ZN1A3fooEc to i8*), i8* bitcast (i32 (%class.A*, i32)* @_ZN1A3fooEi to i8*), i8* bitcast (i32 (%class.A*, %class.A*)* @_ZN1AplES_ to i8*)]
@llvm.global_ctors = appending global [1 x %3] [%3 { i32 65535, void ()* @_GLOBAL__I_a }]

define internal void @__cxx_global_var_init() nounwind {
  call void @_ZNSt8ios_base4InitC1Ev(%"class.std::ios_base::Init"* @_ZStL8__ioinit)
  %1 = call i32 @__cxa_atexit(void (i8*)* bitcast (void (%"class.std::ios_base::Init"*)* @_ZNSt8ios_base4InitD1Ev to void (i8*)*), i8* getelementptr inbounds (%"class.std::ios_base::Init"* @_ZStL8__ioinit, i32 0, i32 0), i8* bitcast (i8** @__dso_handle to i8*))
  ret void
}

declare void @_ZNSt8ios_base4InitC1Ev(%"class.std::ios_base::Init"*)

declare void @_ZNSt8ios_base4InitD1Ev(%"class.std::ios_base::Init"*)

declare i32 @__cxa_atexit(void (i8*)*, i8*, i8*)

define i32 @main() nounwind {
  %1 = alloca i32, align 4
  %a = alloca %class.A*, align 8
  %a2 = alloca %class.A2*, align 8
  %b = alloca %class.B*, align 8
  %d = alloca %class.C*, align 8
  %x = alloca %class.A*, align 8
  %z = alloca %class.A2*, align 8
  %c = alloca %class.C*, align 8
  store i32 0, i32* %1
  call void @llvm.dbg.declare(metadata !{%class.A** %a}, metadata !1016), !dbg !1019
  %2 = call noalias i8* @_Znwm(i64 16), !dbg !1020
  %3 = bitcast i8* %2 to %class.A*, !dbg !1020
  call void @_ZN1AC1Ei(%class.A* %3, i32 1), !dbg !1020
  store %class.A* %3, %class.A** %a, align 8, !dbg !1020
  call void @llvm.dbg.declare(metadata !{%class.A2** %a2}, metadata !1021), !dbg !1023
  %4 = call noalias i8* @_Znwm(i64 8), !dbg !1024
  %5 = bitcast i8* %4 to %class.A2*, !dbg !1024
  %6 = bitcast %class.A2* %5 to i8*, !dbg !1024
  call void @llvm.memset.p0i8.i64(i8* %6, i8 0, i64 8, i32 8, i1 false), !dbg !1024
  call void @_ZN2A2C1Ev(%class.A2* %5) nounwind, !dbg !1024
  store %class.A2* %5, %class.A2** %a2, align 8, !dbg !1024
  call void @llvm.dbg.declare(metadata !{%class.B** %b}, metadata !1025), !dbg !1027
  %7 = call noalias i8* @_Znwm(i64 24), !dbg !1028
  %8 = bitcast i8* %7 to %class.B*, !dbg !1028
  call void @_ZN1BC1Ei(%class.B* %8, i32 2), !dbg !1028
  store %class.B* %8, %class.B** %b, align 8, !dbg !1028
  call void @llvm.dbg.declare(metadata !{%class.C** %d}, metadata !1029), !dbg !1031
  %9 = call noalias i8* @_Znwm(i64 24), !dbg !1032
  %10 = bitcast i8* %9 to %class.C*, !dbg !1032
  %11 = bitcast %class.C* %10 to i8*, !dbg !1032
  call void @llvm.memset.p0i8.i64(i8* %11, i8 0, i64 24, i32 8, i1 false), !dbg !1032
  call void @_ZN1DC1Ev(%class.C* %10), !dbg !1032
  store %class.C* %10, %class.C** %d, align 8, !dbg !1032
  call void @llvm.dbg.declare(metadata !{%class.A** %x}, metadata !1033), !dbg !1034
  %12 = load %class.B** %b, align 8, !dbg !1035
  %13 = bitcast %class.B* %12 to %class.A*, !dbg !1035
  store %class.A* %13, %class.A** %x, align 8, !dbg !1035
  call void @llvm.dbg.declare(metadata !{%class.A2** %z}, metadata !1036), !dbg !1038
  call void @llvm.dbg.declare(metadata !{%class.C** %c}, metadata !1039), !dbg !1040
  %14 = load %class.C** %d, align 8, !dbg !1041
  %15 = bitcast %class.C* %14 to i8 (%class.C*)***, !dbg !1041
  %16 = load i8 (%class.C*)*** %15, !dbg !1041
  %17 = getelementptr inbounds i8 (%class.C*)** %16, i64 0, !dbg !1041
  %18 = load i8 (%class.C*)** %17, !dbg !1041
  %19 = call signext i8 %18(%class.C* %14), !dbg !1041, !virtual-call !1042
  %20 = call %"class.std::basic_ostream"* @_ZStlsISt11char_traitsIcEERSt13basic_ostreamIcT_ES5_PKc(%"class.std::basic_ostream"* @_ZSt4cout, i8* getelementptr inbounds ([6 x i8]* @.str, i32 0, i32 0)), !dbg !1043
  %21 = load %class.B** %b, align 8, !dbg !1043
  %22 = bitcast %class.B* %21 to i8 (%class.B*)***, !dbg !1043
  %23 = load i8 (%class.B*)*** %22, !dbg !1043
  %24 = getelementptr inbounds i8 (%class.B*)** %23, i64 0, !dbg !1043
  %25 = load i8 (%class.B*)** %24, !dbg !1043
  %26 = call signext i8 %25(%class.B* %21), !dbg !1043, !virtual-call !1044
  %27 = call %"class.std::basic_ostream"* @_ZStlsISt11char_traitsIcEERSt13basic_ostreamIcT_ES5_c(%"class.std::basic_ostream"* %20, i8 signext %26), !dbg !1043
  %28 = load %class.B** %b, align 8, !dbg !1043
  %29 = bitcast %class.B* %28 to i32 (%class.B*, i32)***, !dbg !1043
  %30 = load i32 (%class.B*, i32)*** %29, !dbg !1043
  %31 = getelementptr inbounds i32 (%class.B*, i32)** %30, i64 2, !dbg !1043
  %32 = load i32 (%class.B*, i32)** %31, !dbg !1043
  %33 = call i32 %32(%class.B* %28, i32 1), !dbg !1043, !virtual-call !1045
  %34 = call %"class.std::basic_ostream"* @_ZNSolsEi(%"class.std::basic_ostream"* %27, i32 %33), !dbg !1043
  %35 = call %"class.std::basic_ostream"* @_ZNSolsEPFRSoS_E(%"class.std::basic_ostream"* %34, %"class.std::basic_ostream"* (%"class.std::basic_ostream"*)* @_ZSt4endlIcSt11char_traitsIcEERSt13basic_ostreamIT_T0_ES6_), !dbg !1043
  %36 = call %"class.std::basic_ostream"* @_ZStlsISt11char_traitsIcEERSt13basic_ostreamIcT_ES5_PKc(%"class.std::basic_ostream"* @_ZSt4cout, i8* getelementptr inbounds ([7 x i8]* @.str1, i32 0, i32 0)), !dbg !1046
  %37 = load %class.A** %x, align 8, !dbg !1046
  %38 = bitcast %class.A* %37 to i8 (%class.A*)***, !dbg !1046
  %39 = load i8 (%class.A*)*** %38, !dbg !1046
  %40 = getelementptr inbounds i8 (%class.A*)** %39, i64 0, !dbg !1046
  %41 = load i8 (%class.A*)** %40, !dbg !1046
  %42 = call signext i8 %41(%class.A* %37), !dbg !1046, !virtual-call !1047
  %43 = call %"class.std::basic_ostream"* @_ZStlsISt11char_traitsIcEERSt13basic_ostreamIcT_ES5_c(%"class.std::basic_ostream"* %36, i8 signext %42), !dbg !1046
  %44 = load %class.A** %x, align 8, !dbg !1046
  %45 = bitcast %class.A* %44 to i32 (%class.A*, i32)***, !dbg !1046
  %46 = load i32 (%class.A*, i32)*** %45, !dbg !1046
  %47 = getelementptr inbounds i32 (%class.A*, i32)** %46, i64 2, !dbg !1046
  %48 = load i32 (%class.A*, i32)** %47, !dbg !1046
  %49 = call i32 %48(%class.A* %44, i32 1), !dbg !1046, !virtual-call !1048
  %50 = call %"class.std::basic_ostream"* @_ZNSolsEi(%"class.std::basic_ostream"* %43, i32 %49), !dbg !1046
  %51 = call %"class.std::basic_ostream"* @_ZNSolsEPFRSoS_E(%"class.std::basic_ostream"* %50, %"class.std::basic_ostream"* (%"class.std::basic_ostream"*)* @_ZSt4endlIcSt11char_traitsIcEERSt13basic_ostreamIT_T0_ES6_), !dbg !1046
  %52 = call %"class.std::basic_ostream"* @_ZStlsISt11char_traitsIcEERSt13basic_ostreamIcT_ES5_PKc(%"class.std::basic_ostream"* @_ZSt4cout, i8* getelementptr inbounds ([9 x i8]* @.str2, i32 0, i32 0)), !dbg !1049
  %53 = load %class.A** %x, align 8, !dbg !1049
  %54 = call signext i8 @_ZN1A3fooEv(%class.A* %53), !dbg !1049
  %55 = call %"class.std::basic_ostream"* @_ZStlsISt11char_traitsIcEERSt13basic_ostreamIcT_ES5_c(%"class.std::basic_ostream"* %52, i8 signext %54), !dbg !1049
  %56 = load %class.A** %x, align 8, !dbg !1049
  %57 = call i32 @_ZN1A3fooEi(%class.A* %56, i32 1), !dbg !1049
  %58 = call %"class.std::basic_ostream"* @_ZNSolsEi(%"class.std::basic_ostream"* %55, i32 %57), !dbg !1049
  %59 = call %"class.std::basic_ostream"* @_ZNSolsEPFRSoS_E(%"class.std::basic_ostream"* %58, %"class.std::basic_ostream"* (%"class.std::basic_ostream"*)* @_ZSt4endlIcSt11char_traitsIcEERSt13basic_ostreamIT_T0_ES6_), !dbg !1049
  %60 = load %class.A** %a, align 8, !dbg !1050
  %61 = icmp eq %class.A* %60, null, !dbg !1050
  br i1 %61, label %64, label %62, !dbg !1050

; <label>:62                                      ; preds = %0
  %63 = bitcast %class.A* %60 to i8*, !dbg !1050
  call void @_ZdlPv(i8* %63) nounwind, !dbg !1050
  br label %64, !dbg !1050

; <label>:64                                      ; preds = %62, %0
  %65 = load %class.A2** %a2, align 8, !dbg !1051
  %66 = icmp eq %class.A2* %65, null, !dbg !1051
  br i1 %66, label %69, label %67, !dbg !1051

; <label>:67                                      ; preds = %64
  %68 = bitcast %class.A2* %65 to i8*, !dbg !1051
  call void @_ZdlPv(i8* %68) nounwind, !dbg !1051
  br label %69, !dbg !1051

; <label>:69                                      ; preds = %67, %64
  %70 = load %class.B** %b, align 8, !dbg !1052
  %71 = icmp eq %class.B* %70, null, !dbg !1052
  br i1 %71, label %74, label %72, !dbg !1052

; <label>:72                                      ; preds = %69
  %73 = bitcast %class.B* %70 to i8*, !dbg !1052
  call void @_ZdlPv(i8* %73) nounwind, !dbg !1052
  br label %74, !dbg !1052

; <label>:74                                      ; preds = %72, %69
  ret i32 0, !dbg !1053
}

declare void @llvm.dbg.declare(metadata, metadata) nounwind readnone

declare noalias i8* @_Znwm(i64)

define linkonce_odr void @_ZN1AC1Ei(%class.A* %this, i32 %x) unnamed_addr nounwind align 2 {
  %1 = alloca %class.A*, align 8
  %2 = alloca i32, align 4
  store %class.A* %this, %class.A** %1, align 8
  call void @llvm.dbg.declare(metadata !{%class.A** %1}, metadata !1054), !dbg !1055
  store i32 %x, i32* %2, align 4
  call void @llvm.dbg.declare(metadata !{i32* %2}, metadata !1056), !dbg !1057
  %3 = load %class.A** %1
  %4 = load i32* %2, align 4, !dbg !1057
  call void @_ZN1AC2Ei(%class.A* %3, i32 %4), !dbg !1057
  ret void, !dbg !1057
}

declare void @llvm.memset.p0i8.i64(i8* nocapture, i8, i64, i32, i1) nounwind

define linkonce_odr void @_ZN2A2C1Ev(%class.A2* %this) unnamed_addr nounwind inlinehint align 2 {
  %1 = alloca %class.A2*, align 8
  store %class.A2* %this, %class.A2** %1, align 8
  call void @llvm.dbg.declare(metadata !{%class.A2** %1}, metadata !1058), !dbg !1059
  %2 = load %class.A2** %1
  call void @_ZN2A2C2Ev(%class.A2* %2) nounwind, !dbg !1059
  ret void, !dbg !1059
}

define linkonce_odr void @_ZN1BC1Ei(%class.B* %this, i32 %x) unnamed_addr nounwind align 2 {
  %1 = alloca %class.B*, align 8
  %2 = alloca i32, align 4
  store %class.B* %this, %class.B** %1, align 8
  call void @llvm.dbg.declare(metadata !{%class.B** %1}, metadata !1060), !dbg !1061
  store i32 %x, i32* %2, align 4
  call void @llvm.dbg.declare(metadata !{i32* %2}, metadata !1062), !dbg !1063
  %3 = load %class.B** %1
  %4 = load i32* %2, align 4, !dbg !1063
  call void @_ZN1BC2Ei(%class.B* %3, i32 %4), !dbg !1063
  ret void, !dbg !1063
}

define linkonce_odr void @_ZN1DC1Ev(%class.C* %this) unnamed_addr nounwind inlinehint align 2 {
  %1 = alloca %class.C*, align 8
  store %class.C* %this, %class.C** %1, align 8
  call void @llvm.dbg.declare(metadata !{%class.C** %1}, metadata !1064), !dbg !1065
  %2 = load %class.C** %1
  call void @_ZN1DC2Ev(%class.C* %2), !dbg !1065
  ret void, !dbg !1065
}

define linkonce_odr signext i8 @_ZN1D3fooEv(%class.C* %this) nounwind align 2 {
  %1 = alloca %class.C*, align 8
  store %class.C* %this, %class.C** %1, align 8
  call void @llvm.dbg.declare(metadata !{%class.C** %1}, metadata !1066), !dbg !1067
  %2 = load %class.C** %1
  ret i8 68, !dbg !1068
}

declare %"class.std::basic_ostream"* @_ZStlsISt11char_traitsIcEERSt13basic_ostreamIcT_ES5_c(%"class.std::basic_ostream"*, i8 signext)

declare %"class.std::basic_ostream"* @_ZStlsISt11char_traitsIcEERSt13basic_ostreamIcT_ES5_PKc(%"class.std::basic_ostream"*, i8*)

define linkonce_odr signext i8 @_ZN1B3fooEv(%class.B* %this) nounwind align 2 {
  %1 = alloca %class.B*, align 8
  store %class.B* %this, %class.B** %1, align 8
  call void @llvm.dbg.declare(metadata !{%class.B** %1}, metadata !1070), !dbg !1071
  %2 = load %class.B** %1
  ret i8 66, !dbg !1072
}

declare %"class.std::basic_ostream"* @_ZNSolsEi(%"class.std::basic_ostream"*, i32)

define linkonce_odr i32 @_ZN1B3fooEi(%class.B* %this, i32 %x) nounwind align 2 {
  %1 = alloca %class.B*, align 8
  %2 = alloca i32, align 4
  store %class.B* %this, %class.B** %1, align 8
  call void @llvm.dbg.declare(metadata !{%class.B** %1}, metadata !1074), !dbg !1075
  store i32 %x, i32* %2, align 4
  call void @llvm.dbg.declare(metadata !{i32* %2}, metadata !1076), !dbg !1077
  %3 = load %class.B** %1
  %4 = load i32* %2, align 4, !dbg !1078
  %5 = mul nsw i32 %4, 3, !dbg !1078
  ret i32 %5, !dbg !1078
}

declare %"class.std::basic_ostream"* @_ZNSolsEPFRSoS_E(%"class.std::basic_ostream"*, %"class.std::basic_ostream"* (%"class.std::basic_ostream"*)*)

declare %"class.std::basic_ostream"* @_ZSt4endlIcSt11char_traitsIcEERSt13basic_ostreamIT_T0_ES6_(%"class.std::basic_ostream"*)

define linkonce_odr signext i8 @_ZN1A3fooEv(%class.A* %this) nounwind align 2 {
  %1 = alloca %class.A*, align 8
  store %class.A* %this, %class.A** %1, align 8
  call void @llvm.dbg.declare(metadata !{%class.A** %1}, metadata !1080), !dbg !1081
  %2 = load %class.A** %1
  ret i8 65, !dbg !1082
}

define linkonce_odr i32 @_ZN1A3fooEi(%class.A* %this, i32 %x) nounwind align 2 {
  %1 = alloca %class.A*, align 8
  %2 = alloca i32, align 4
  store %class.A* %this, %class.A** %1, align 8
  call void @llvm.dbg.declare(metadata !{%class.A** %1}, metadata !1084), !dbg !1085
  store i32 %x, i32* %2, align 4
  call void @llvm.dbg.declare(metadata !{i32* %2}, metadata !1086), !dbg !1087
  %3 = load %class.A** %1
  %4 = load i32* %2, align 4, !dbg !1088
  %5 = mul nsw i32 %4, 2, !dbg !1088
  ret i32 %5, !dbg !1088
}

declare void @_ZdlPv(i8*) nounwind

define linkonce_odr void @_ZN1DC2Ev(%class.C* %this) unnamed_addr nounwind inlinehint align 2 {
  %1 = alloca %class.C*, align 8
  store %class.C* %this, %class.C** %1, align 8
  call void @llvm.dbg.declare(metadata !{%class.C** %1}, metadata !1090), !dbg !1091
  %2 = load %class.C** %1
  call void @_ZN1CC2Ev(%class.C* %2)
  %3 = bitcast %class.C* %2 to i8***
  store i8** getelementptr inbounds ([10 x i8*]* @_ZTV1D, i64 0, i64 2), i8*** %3
  %4 = bitcast %class.C* %2 to i8*
  %5 = getelementptr i8* %4, i64 16
  %6 = bitcast i8* %5 to i8***
  store i8** getelementptr inbounds ([10 x i8*]* @_ZTV1D, i64 0, i64 9), i8*** %6
  ret void, !dbg !1092
}

define linkonce_odr void @_ZN1CC2Ev(%class.C* %this) unnamed_addr nounwind inlinehint align 2 {
  %1 = alloca %class.C*, align 8
  store %class.C* %this, %class.C** %1, align 8
  call void @llvm.dbg.declare(metadata !{%class.C** %1}, metadata !1094), !dbg !1095
  %2 = load %class.C** %1
  %3 = bitcast %class.C* %2 to %class.B*
  call void @_ZN1BC2Ev(%class.B* %3)
  %4 = bitcast %class.C* %2 to i8***
  store i8** getelementptr inbounds ([10 x i8*]* @_ZTV1C, i64 0, i64 2), i8*** %4
  %5 = bitcast %class.C* %2 to i8*
  %6 = getelementptr i8* %5, i64 16
  %7 = bitcast i8* %6 to i8***
  store i8** getelementptr inbounds ([10 x i8*]* @_ZTV1C, i64 0, i64 9), i8*** %7
  ret void, !dbg !1096
}

define linkonce_odr signext i8 @_ZN1B3fooEc(%class.B* %this, i8 signext %y) nounwind align 2 {
  %1 = alloca %class.B*, align 8
  %2 = alloca i8, align 1
  store %class.B* %this, %class.B** %1, align 8
  call void @llvm.dbg.declare(metadata !{%class.B** %1}, metadata !1098), !dbg !1099
  store i8 %y, i8* %2, align 1
  call void @llvm.dbg.declare(metadata !{i8* %2}, metadata !1100), !dbg !1101
  %3 = load %class.B** %1
  %4 = load i8* %2, align 1, !dbg !1102
  %5 = sext i8 %4 to i32, !dbg !1102
  %6 = add nsw i32 %5, 1, !dbg !1102
  %7 = trunc i32 %6 to i8, !dbg !1102
  ret i8 %7, !dbg !1102
}

define linkonce_odr i32 @_ZN1AplES_(%class.A* %this, %class.A* %a) nounwind align 2 {
  %1 = alloca %class.A*, align 8
  store %class.A* %this, %class.A** %1, align 8
  call void @llvm.dbg.declare(metadata !{%class.A** %1}, metadata !1104), !dbg !1105
  call void @llvm.dbg.declare(metadata !{%class.A* %a}, metadata !1106), !dbg !1108
  %2 = load %class.A** %1
  ret i32 3, !dbg !1109
}

define linkonce_odr i32 @_ZN1B3gooEv(%class.B* %this) nounwind align 2 {
  %1 = alloca %class.B*, align 8
  store %class.B* %this, %class.B** %1, align 8
  call void @llvm.dbg.declare(metadata !{%class.B** %1}, metadata !1111), !dbg !1112
  %2 = load %class.B** %1
  ret i32 42, !dbg !1113
}

define linkonce_odr i32 @_ZThn16_N1B3gooEv(%class.B* %this) {
  %1 = alloca %class.B*, align 8
  store %class.B* %this, %class.B** %1, align 8
  %2 = load %class.B** %1
  %3 = bitcast %class.B* %2 to i8*
  %4 = getelementptr inbounds i8* %3, i64 -16
  %5 = bitcast i8* %4 to %class.B*
  %6 = call i32 @_ZN1B3gooEv(%class.B* %5)
  ret i32 %6
}

define linkonce_odr void @_ZN1BC2Ev(%class.B* %this) unnamed_addr nounwind align 2 {
  %1 = alloca %class.B*, align 8
  store %class.B* %this, %class.B** %1, align 8
  call void @llvm.dbg.declare(metadata !{%class.B** %1}, metadata !1115), !dbg !1116
  %2 = load %class.B** %1
  %3 = bitcast %class.B* %2 to %class.A*
  call void @_ZN1AC2Ei(%class.A* %3, i32 3)
  %4 = bitcast %class.B* %2 to i8*
  %5 = getelementptr inbounds i8* %4, i64 16
  %6 = bitcast i8* %5 to %class.A2*
  call void @_ZN2A2C2Ev(%class.A2* %6) nounwind
  %7 = bitcast %class.B* %2 to i8***
  store i8** getelementptr inbounds ([10 x i8*]* @_ZTV1B, i64 0, i64 2), i8*** %7
  %8 = bitcast %class.B* %2 to i8*
  %9 = getelementptr i8* %8, i64 16
  %10 = bitcast i8* %9 to i8***
  store i8** getelementptr inbounds ([10 x i8*]* @_ZTV1B, i64 0, i64 9), i8*** %10
  ret void, !dbg !1117
}

define linkonce_odr void @_ZN1AC2Ei(%class.A* %this, i32 %x) unnamed_addr nounwind align 2 {
  %1 = alloca %class.A*, align 8
  %2 = alloca i32, align 4
  store %class.A* %this, %class.A** %1, align 8
  call void @llvm.dbg.declare(metadata !{%class.A** %1}, metadata !1119), !dbg !1120
  store i32 %x, i32* %2, align 4
  call void @llvm.dbg.declare(metadata !{i32* %2}, metadata !1121), !dbg !1122
  %3 = load %class.A** %1
  %4 = bitcast %class.A* %3 to i8***
  store i8** getelementptr inbounds ([6 x i8*]* @_ZTV1A, i64 0, i64 2), i8*** %4
  %5 = getelementptr inbounds %class.A* %3, i32 0, i32 1
  %6 = load i32* %2, align 4
  store i32 %6, i32* %5, align 4
  ret void, !dbg !1123
}

define linkonce_odr void @_ZN2A2C2Ev(%class.A2* %this) unnamed_addr nounwind inlinehint align 2 {
  %1 = alloca %class.A2*, align 8
  store %class.A2* %this, %class.A2** %1, align 8
  call void @llvm.dbg.declare(metadata !{%class.A2** %1}, metadata !1125), !dbg !1126
  %2 = load %class.A2** %1
  %3 = bitcast %class.A2* %2 to i8***
  store i8** getelementptr inbounds ([3 x i8*]* @_ZTV2A2, i64 0, i64 2), i8*** %3
  ret void, !dbg !1127
}

define linkonce_odr i32 @_ZN2A23gooEv(%class.A2* %this) nounwind align 2 {
  %1 = alloca %class.A2*, align 8
  store %class.A2* %this, %class.A2** %1, align 8
  call void @llvm.dbg.declare(metadata !{%class.A2** %1}, metadata !1129), !dbg !1130
  %2 = load %class.A2** %1
  ret i32 22, !dbg !1131
}

define linkonce_odr signext i8 @_ZN1A3fooEc(%class.A* %this, i8 signext %y) nounwind align 2 {
  %1 = alloca %class.A*, align 8
  %2 = alloca i8, align 1
  store %class.A* %this, %class.A** %1, align 8
  call void @llvm.dbg.declare(metadata !{%class.A** %1}, metadata !1133), !dbg !1134
  store i8 %y, i8* %2, align 1
  call void @llvm.dbg.declare(metadata !{i8* %2}, metadata !1135), !dbg !1136
  %3 = load %class.A** %1
  %4 = load i8* %2, align 1, !dbg !1137
  ret i8 %4, !dbg !1137
}

define linkonce_odr void @_ZN1BC2Ei(%class.B* %this, i32 %x) unnamed_addr nounwind align 2 {
  %1 = alloca %class.B*, align 8
  %2 = alloca i32, align 4
  store %class.B* %this, %class.B** %1, align 8
  call void @llvm.dbg.declare(metadata !{%class.B** %1}, metadata !1139), !dbg !1140
  store i32 %x, i32* %2, align 4
  call void @llvm.dbg.declare(metadata !{i32* %2}, metadata !1141), !dbg !1142
  %3 = load %class.B** %1
  %4 = bitcast %class.B* %3 to %class.A*
  %5 = load i32* %2, align 4
  call void @_ZN1AC2Ei(%class.A* %4, i32 %5)
  %6 = bitcast %class.B* %3 to i8*
  %7 = getelementptr inbounds i8* %6, i64 16
  %8 = bitcast i8* %7 to %class.A2*
  call void @_ZN2A2C2Ev(%class.A2* %8) nounwind
  %9 = bitcast %class.B* %3 to i8***
  store i8** getelementptr inbounds ([10 x i8*]* @_ZTV1B, i64 0, i64 2), i8*** %9
  %10 = bitcast %class.B* %3 to i8*
  %11 = getelementptr i8* %10, i64 16
  %12 = bitcast i8* %11 to i8***
  store i8** getelementptr inbounds ([10 x i8*]* @_ZTV1B, i64 0, i64 9), i8*** %12
  ret void, !dbg !1143
}

define internal void @_GLOBAL__I_a() nounwind {
  call void @__cxx_global_var_init()
  ret void
}

!llvm.dbg.enum = !{!0, !24, !31, !40, !46}
!llvm.dbg.gv = !{!849, !851, !852, !853, !854, !855, !856, !857, !858, !859, !860, !861, !862, !863, !864, !865, !866, !867, !868, !870, !871, !872, !873, !876, !877, !878, !879, !880, !881, !884, !885, !886, !888, !889, !890, !891, !892, !893, !894, !895, !897}
!llvm.dbg.sp = !{!79, !83, !86, !96, !124, !127, !133, !136, !165, !168, !171, !174, !177, !178, !179, !183, !194, !198, !199, !204, !207, !210, !211, !214, !215, !219, !233, !239, !240, !243, !224, !248, !251, !254, !259, !263, !268, !271, !274, !277, !278, !303, !307, !312, !313, !319, !324, !330, !333, !336, !339, !344, !348, !353, !355, !360, !364, !381, !385, !389, !390, !393, !394, !397, !400, !403, !406, !409, !410, !411, !367, !414, !421, !422, !425, !428, !431, !434, !437, !440, !441, !444, !447, !451, !454, !455, !458, !461, !462, !464, !465, !468, !473, !476, !479, !482, !485, !488, !489, !493, !496, !499, !500, !503, !504, !505, !511, !515, !516, !517, !520, !521, !522, !525, !528, !529, !530, !531, !534, !539, !544, !545, !546, !547, !548, !549, !550, !553, !556, !557, !560, !563, !564, !565, !566, !567, !568, !571, !574, !577, !580, !583, !586, !589, !592, !595, !598, !601, !604, !607, !610, !613, !616, !619, !622, !625, !628, !629, !632, !635, !636, !637, !640, !643, !646, !647, !648, !652, !653, !656, !659, !662, !663, !664, !665, !666, !667, !668, !669, !670, !671, !672, !673, !674, !675, !676, !677, !678, !679, !680, !681, !682, !685, !688, !691, !694, !697, !700, !709, !716, !719, !720, !724, !727, !730, !734, !735, !738, !744, !747, !750, !753, !281, !757, !760, !761, !764, !767, !770, !771, !772, !775, !778, !782, !785, !788, !792, !793, !796, !799, !800, !803, !806, !809, !812, !813, !814, !817, !820, !823, !826, !827, !831, !835, !836, !837, !842, !902, !906, !908, !910, !915, !919, !922, !925, !928, !933, !937, !943, !948, !952, !955, !958, !961, !966, !973, !977, !983, !987, !993, !994, !997, !998, !999, !1000, !1002, !1003, !1004, !1005, !1006, !1007, !1008, !1009, !1010, !1011, !1012, !1013, !1014, !1015}

!0 = metadata !{i32 589828, metadata !1, metadata !"_Ios_Fmtflags", metadata !3, i32 59, i64 32, i64 32, i32 0, i32 0, i32 0, metadata !4, i32 0, i32 0} ; [ DW_TAG_enumeration_type ]
!1 = metadata !{i32 589881, metadata !2, metadata !"std", metadata !3, i32 53} ; [ DW_TAG_namespace ]
!2 = metadata !{i32 589841, i32 0, i32 4, metadata !"/home/brian/llvm/lib/Transforms/cs380c-devirtualization/<unknown>", metadata !"/home/brian/llvm/tools/clang-2.9", metadata !"clang version 2.9 (tags/RELEASE_29/final)", i1 true, i1 false, metadata !"", i32 0} ; [ DW_TAG_compile_unit ]
!3 = metadata !{i32 589865, metadata !"/usr/include/c++/4.4/bits/ios_base.h", metadata !"/home/brian/llvm/tools/clang-2.9", metadata !2} ; [ DW_TAG_file_type ]
!4 = metadata !{metadata !5, metadata !6, metadata !7, metadata !8, metadata !9, metadata !10, metadata !11, metadata !12, metadata !13, metadata !14, metadata !15, metadata !16, metadata !17, metadata !18, metadata !19, metadata !20, metadata !21, metadata !22, metadata !23}
!5 = metadata !{i32 589864, metadata !"_S_boolalpha", i64 1} ; [ DW_TAG_enumerator ]
!6 = metadata !{i32 589864, metadata !"_S_dec", i64 2} ; [ DW_TAG_enumerator ]
!7 = metadata !{i32 589864, metadata !"_S_fixed", i64 4} ; [ DW_TAG_enumerator ]
!8 = metadata !{i32 589864, metadata !"_S_hex", i64 8} ; [ DW_TAG_enumerator ]
!9 = metadata !{i32 589864, metadata !"_S_internal", i64 16} ; [ DW_TAG_enumerator ]
!10 = metadata !{i32 589864, metadata !"_S_left", i64 32} ; [ DW_TAG_enumerator ]
!11 = metadata !{i32 589864, metadata !"_S_oct", i64 64} ; [ DW_TAG_enumerator ]
!12 = metadata !{i32 589864, metadata !"_S_right", i64 128} ; [ DW_TAG_enumerator ]
!13 = metadata !{i32 589864, metadata !"_S_scientific", i64 256} ; [ DW_TAG_enumerator ]
!14 = metadata !{i32 589864, metadata !"_S_showbase", i64 512} ; [ DW_TAG_enumerator ]
!15 = metadata !{i32 589864, metadata !"_S_showpoint", i64 1024} ; [ DW_TAG_enumerator ]
!16 = metadata !{i32 589864, metadata !"_S_showpos", i64 2048} ; [ DW_TAG_enumerator ]
!17 = metadata !{i32 589864, metadata !"_S_skipws", i64 4096} ; [ DW_TAG_enumerator ]
!18 = metadata !{i32 589864, metadata !"_S_unitbuf", i64 8192} ; [ DW_TAG_enumerator ]
!19 = metadata !{i32 589864, metadata !"_S_uppercase", i64 16384} ; [ DW_TAG_enumerator ]
!20 = metadata !{i32 589864, metadata !"_S_adjustfield", i64 176} ; [ DW_TAG_enumerator ]
!21 = metadata !{i32 589864, metadata !"_S_basefield", i64 74} ; [ DW_TAG_enumerator ]
!22 = metadata !{i32 589864, metadata !"_S_floatfield", i64 260} ; [ DW_TAG_enumerator ]
!23 = metadata !{i32 589864, metadata !"_S_ios_fmtflags_end", i64 65536} ; [ DW_TAG_enumerator ]
!24 = metadata !{i32 589828, metadata !1, metadata !"_Ios_Iostate", metadata !3, i32 151, i64 32, i64 32, i32 0, i32 0, i32 0, metadata !25, i32 0, i32 0} ; [ DW_TAG_enumeration_type ]
!25 = metadata !{metadata !26, metadata !27, metadata !28, metadata !29, metadata !30}
!26 = metadata !{i32 589864, metadata !"_S_goodbit", i64 0} ; [ DW_TAG_enumerator ]
!27 = metadata !{i32 589864, metadata !"_S_badbit", i64 1} ; [ DW_TAG_enumerator ]
!28 = metadata !{i32 589864, metadata !"_S_eofbit", i64 2} ; [ DW_TAG_enumerator ]
!29 = metadata !{i32 589864, metadata !"_S_failbit", i64 4} ; [ DW_TAG_enumerator ]
!30 = metadata !{i32 589864, metadata !"_S_ios_iostate_end", i64 65536} ; [ DW_TAG_enumerator ]
!31 = metadata !{i32 589828, metadata !1, metadata !"_Ios_Openmode", metadata !3, i32 111, i64 32, i64 32, i32 0, i32 0, i32 0, metadata !32, i32 0, i32 0} ; [ DW_TAG_enumeration_type ]
!32 = metadata !{metadata !33, metadata !34, metadata !35, metadata !36, metadata !37, metadata !38, metadata !39}
!33 = metadata !{i32 589864, metadata !"_S_app", i64 1} ; [ DW_TAG_enumerator ]
!34 = metadata !{i32 589864, metadata !"_S_ate", i64 2} ; [ DW_TAG_enumerator ]
!35 = metadata !{i32 589864, metadata !"_S_bin", i64 4} ; [ DW_TAG_enumerator ]
!36 = metadata !{i32 589864, metadata !"_S_in", i64 8} ; [ DW_TAG_enumerator ]
!37 = metadata !{i32 589864, metadata !"_S_out", i64 16} ; [ DW_TAG_enumerator ]
!38 = metadata !{i32 589864, metadata !"_S_trunc", i64 32} ; [ DW_TAG_enumerator ]
!39 = metadata !{i32 589864, metadata !"_S_ios_openmode_end", i64 65536} ; [ DW_TAG_enumerator ]
!40 = metadata !{i32 589828, metadata !1, metadata !"_Ios_Seekdir", metadata !3, i32 188, i64 32, i64 32, i32 0, i32 0, i32 0, metadata !41, i32 0, i32 0} ; [ DW_TAG_enumeration_type ]
!41 = metadata !{metadata !42, metadata !43, metadata !44, metadata !45}
!42 = metadata !{i32 589864, metadata !"_S_beg", i64 0} ; [ DW_TAG_enumerator ]
!43 = metadata !{i32 589864, metadata !"_S_cur", i64 1} ; [ DW_TAG_enumerator ]
!44 = metadata !{i32 589864, metadata !"_S_end", i64 2} ; [ DW_TAG_enumerator ]
!45 = metadata !{i32 589864, metadata !"_S_ios_seekdir_end", i64 65536} ; [ DW_TAG_enumerator ]
!46 = metadata !{i32 589828, metadata !47, metadata !"event", metadata !3, i32 426, i64 32, i64 32, i32 0, i32 0, i32 0, metadata !845, i32 0, i32 0} ; [ DW_TAG_enumeration_type ]
!47 = metadata !{i32 589826, metadata !1, metadata !"ios_base", metadata !3, i32 206, i64 1728, i64 64, i32 0, i32 0, null, metadata !48, i32 0, metadata !47, metadata !89} ; [ DW_TAG_class_type ]
!48 = metadata !{metadata !49, metadata !55, metadata !59, metadata !60, metadata !62, metadata !64, metadata !65, metadata !90, metadata !100, metadata !104, metadata !105, metadata !106, metadata !778, metadata !782, metadata !785, metadata !788, metadata !792, metadata !793, metadata !796, metadata !799, metadata !800, metadata !803, metadata !806, metadata !809, metadata !812, metadata !813, metadata !814, metadata !817, metadata !820, metadata !823, metadata !826, metadata !827, metadata !831, metadata !835, metadata !836, metadata !837, metadata !842}
!49 = metadata !{i32 589837, metadata !3, metadata !"_vptr$ios_base", metadata !3, i32 0, i64 64, i64 0, i64 0, i32 0, metadata !50} ; [ DW_TAG_member ]
!50 = metadata !{i32 589839, metadata !2, metadata !"", null, i32 0, i64 64, i64 0, i64 0, i32 0, metadata !51} ; [ DW_TAG_pointer_type ]
!51 = metadata !{i32 589839, metadata !2, metadata !"__vtbl_ptr_type", null, i32 0, i64 64, i64 0, i64 0, i32 0, metadata !52} ; [ DW_TAG_pointer_type ]
!52 = metadata !{i32 589845, metadata !3, metadata !"", metadata !3, i32 0, i64 0, i64 0, i32 0, i32 0, i32 0, metadata !53, i32 0, i32 0} ; [ DW_TAG_subroutine_type ]
!53 = metadata !{metadata !54}
!54 = metadata !{i32 589860, metadata !2, metadata !"int", null, i32 0, i64 32, i64 32, i64 0, i32 0, i32 5} ; [ DW_TAG_base_type ]
!55 = metadata !{i32 589837, metadata !3, metadata !"_M_precision", metadata !3, i32 463, i64 64, i64 64, i64 64, i32 2, metadata !56} ; [ DW_TAG_member ]
!56 = metadata !{i32 589846, metadata !2, metadata !"streamsize", metadata !3, i32 97, i64 0, i64 0, i64 0, i32 0, metadata !57} ; [ DW_TAG_typedef ]
!57 = metadata !{i32 589846, metadata !2, metadata !"ptrdiff_t", metadata !3, i32 29, i64 0, i64 0, i64 0, i32 0, metadata !58} ; [ DW_TAG_typedef ]
!58 = metadata !{i32 589860, metadata !2, metadata !"long int", null, i32 0, i64 64, i64 64, i64 0, i32 0, i32 5} ; [ DW_TAG_base_type ]
!59 = metadata !{i32 589837, metadata !3, metadata !"_M_width", metadata !3, i32 464, i64 64, i64 64, i64 128, i32 2, metadata !56} ; [ DW_TAG_member ]
!60 = metadata !{i32 589837, metadata !3, metadata !"_M_flags", metadata !3, i32 465, i64 32, i64 32, i64 192, i32 2, metadata !61} ; [ DW_TAG_member ]
!61 = metadata !{i32 589846, metadata !1, metadata !"fmtflags", metadata !3, i32 262, i64 0, i64 0, i64 0, i32 0, metadata !0} ; [ DW_TAG_typedef ]
!62 = metadata !{i32 589837, metadata !3, metadata !"_M_exception", metadata !3, i32 466, i64 32, i64 32, i64 224, i32 2, metadata !63} ; [ DW_TAG_member ]
!63 = metadata !{i32 589846, metadata !1, metadata !"iostate", metadata !3, i32 337, i64 0, i64 0, i64 0, i32 0, metadata !24} ; [ DW_TAG_typedef ]
!64 = metadata !{i32 589837, metadata !3, metadata !"_M_streambuf_state", metadata !3, i32 467, i64 32, i64 32, i64 256, i32 2, metadata !63} ; [ DW_TAG_member ]
!65 = metadata !{i32 589837, metadata !3, metadata !"_M_callbacks", metadata !3, i32 493, i64 64, i64 64, i64 320, i32 2, metadata !66} ; [ DW_TAG_member ]
!66 = metadata !{i32 589839, metadata !2, metadata !"", null, i32 0, i64 64, i64 64, i64 0, i32 0, metadata !67} ; [ DW_TAG_pointer_type ]
!67 = metadata !{i32 589826, metadata !47, metadata !"_Callback_list", metadata !3, i32 472, i64 192, i64 64, i32 0, i32 0, null, metadata !68, i32 0, null, metadata !89} ; [ DW_TAG_class_type ]
!68 = metadata !{metadata !69, metadata !70, metadata !76, metadata !77, metadata !79, metadata !83, metadata !86}
!69 = metadata !{i32 589837, metadata !3, metadata !"_M_next", metadata !3, i32 475, i64 64, i64 64, i64 0, i32 0, metadata !66} ; [ DW_TAG_member ]
!70 = metadata !{i32 589837, metadata !3, metadata !"_M_fn", metadata !3, i32 476, i64 64, i64 64, i64 64, i32 0, metadata !71} ; [ DW_TAG_member ]
!71 = metadata !{i32 589846, metadata !2, metadata !"event_callback", metadata !3, i32 443, i64 0, i64 0, i64 0, i32 0, metadata !72} ; [ DW_TAG_typedef ]
!72 = metadata !{i32 589839, metadata !2, metadata !"", null, i32 0, i64 64, i64 64, i64 0, i32 0, metadata !73} ; [ DW_TAG_pointer_type ]
!73 = metadata !{i32 589845, metadata !3, metadata !"", metadata !3, i32 0, i64 0, i64 0, i32 0, i32 0, i32 0, metadata !74, i32 0, i32 0} ; [ DW_TAG_subroutine_type ]
!74 = metadata !{null, metadata !46, metadata !75, metadata !54}
!75 = metadata !{i32 589840, metadata !2, null, null, i32 0, i64 0, i64 0, i64 0, i32 0, metadata !47} ; [ DW_TAG_reference_type ]
!76 = metadata !{i32 589837, metadata !3, metadata !"_M_index", metadata !3, i32 477, i64 32, i64 32, i64 128, i32 0, metadata !54} ; [ DW_TAG_member ]
!77 = metadata !{i32 589837, metadata !3, metadata !"_M_refcount", metadata !3, i32 478, i64 32, i64 32, i64 160, i32 0, metadata !78} ; [ DW_TAG_member ]
!78 = metadata !{i32 589846, metadata !2, metadata !"_Atomic_word", metadata !3, i32 32, i64 0, i64 0, i64 0, i32 0, metadata !54} ; [ DW_TAG_typedef ]
!79 = metadata !{i32 589870, i32 0, metadata !67, metadata !"_Callback_list", metadata !"_Callback_list", metadata !"", metadata !3, i32 480, metadata !80, i1 false, i1 false, i32 0, i32 0, null, i32 256, i1 false, null} ; [ DW_TAG_subprogram ]
!80 = metadata !{i32 589845, metadata !3, metadata !"", metadata !3, i32 0, i64 0, i64 0, i32 0, i32 0, i32 0, metadata !81, i32 0, i32 0} ; [ DW_TAG_subroutine_type ]
!81 = metadata !{null, metadata !82, metadata !71, metadata !54, metadata !66}
!82 = metadata !{i32 589839, metadata !2, metadata !"", i32 0, i32 0, i64 64, i64 64, i64 0, i32 64, metadata !67} ; [ DW_TAG_pointer_type ]
!83 = metadata !{i32 589870, i32 0, metadata !67, metadata !"_M_add_reference", metadata !"_M_add_reference", metadata !"_ZNSt8ios_base14_Callback_list16_M_add_referenceEv", metadata !3, i32 485, metadata !84, i1 false, i1 false, i32 0, i32 0, null, i32 256, i1 false, null} ; [ DW_TAG_subprogram ]
!84 = metadata !{i32 589845, metadata !3, metadata !"", metadata !3, i32 0, i64 0, i64 0, i32 0, i32 0, i32 0, metadata !85, i32 0, i32 0} ; [ DW_TAG_subroutine_type ]
!85 = metadata !{null, metadata !82}
!86 = metadata !{i32 589870, i32 0, metadata !67, metadata !"_M_remove_reference", metadata !"_M_remove_reference", metadata !"_ZNSt8ios_base14_Callback_list19_M_remove_referenceEv", metadata !3, i32 489, metadata !87, i1 false, i1 false, i32 0, i32 0, null, i32 256, i1 false, null} ; [ DW_TAG_subprogram ]
!87 = metadata !{i32 589845, metadata !3, metadata !"", metadata !3, i32 0, i64 0, i64 0, i32 0, i32 0, i32 0, metadata !88, i32 0, i32 0} ; [ DW_TAG_subroutine_type ]
!88 = metadata !{metadata !54, metadata !82}
!89 = metadata !{i32 0}
!90 = metadata !{i32 589837, metadata !3, metadata !"_M_word_zero", metadata !3, i32 510, i64 128, i64 64, i64 384, i32 2, metadata !91} ; [ DW_TAG_member ]
!91 = metadata !{i32 589826, metadata !47, metadata !"_Words", metadata !3, i32 502, i64 128, i64 64, i32 0, i32 0, null, metadata !92, i32 0, null, metadata !89} ; [ DW_TAG_class_type ]
!92 = metadata !{metadata !93, metadata !95, metadata !96}
!93 = metadata !{i32 589837, metadata !3, metadata !"_M_pword", metadata !3, i32 504, i64 64, i64 64, i64 0, i32 0, metadata !94} ; [ DW_TAG_member ]
!94 = metadata !{i32 589839, metadata !2, metadata !"", null, i32 0, i64 64, i64 64, i64 0, i32 0, null} ; [ DW_TAG_pointer_type ]
!95 = metadata !{i32 589837, metadata !3, metadata !"_M_iword", metadata !3, i32 505, i64 64, i64 64, i64 64, i32 0, metadata !58} ; [ DW_TAG_member ]
!96 = metadata !{i32 589870, i32 0, metadata !91, metadata !"_Words", metadata !"_Words", metadata !"", metadata !3, i32 506, metadata !97, i1 false, i1 false, i32 0, i32 0, null, i32 256, i1 false, null} ; [ DW_TAG_subprogram ]
!97 = metadata !{i32 589845, metadata !3, metadata !"", metadata !3, i32 0, i64 0, i64 0, i32 0, i32 0, i32 0, metadata !98, i32 0, i32 0} ; [ DW_TAG_subroutine_type ]
!98 = metadata !{null, metadata !99}
!99 = metadata !{i32 589839, metadata !2, metadata !"", i32 0, i32 0, i64 64, i64 64, i64 0, i32 64, metadata !91} ; [ DW_TAG_pointer_type ]
!100 = metadata !{i32 589837, metadata !3, metadata !"_M_local_word", metadata !3, i32 515, i64 1024, i64 64, i64 512, i32 2, metadata !101} ; [ DW_TAG_member ]
!101 = metadata !{i32 589825, metadata !2, metadata !"", metadata !2, i32 0, i64 1024, i64 64, i32 0, i32 0, metadata !91, metadata !102, i32 0, i32 0} ; [ DW_TAG_array_type ]
!102 = metadata !{metadata !103}
!103 = metadata !{i32 589857, i64 0, i64 7}       ; [ DW_TAG_subrange_type ]
!104 = metadata !{i32 589837, metadata !3, metadata !"_M_word_size", metadata !3, i32 518, i64 32, i64 32, i64 1536, i32 2, metadata !54} ; [ DW_TAG_member ]
!105 = metadata !{i32 589837, metadata !3, metadata !"_M_word", metadata !3, i32 519, i64 64, i64 64, i64 1600, i32 2, metadata !99} ; [ DW_TAG_member ]
!106 = metadata !{i32 589837, metadata !3, metadata !"_M_ios_locale", metadata !3, i32 525, i64 64, i64 64, i64 1664, i32 2, metadata !107} ; [ DW_TAG_member ]
!107 = metadata !{i32 589826, metadata !108, metadata !"locale", metadata !109, i32 60, i64 64, i64 64, i32 0, i32 0, null, metadata !110, i32 0, null, metadata !89} ; [ DW_TAG_class_type ]
!108 = metadata !{i32 589881, metadata !2, metadata !"std", metadata !109, i32 44} ; [ DW_TAG_namespace ]
!109 = metadata !{i32 589865, metadata !"/usr/include/c++/4.4/bits/locale_classes.h", metadata !"/home/brian/llvm/tools/clang-2.9", metadata !2} ; [ DW_TAG_file_type ]
!110 = metadata !{metadata !111, metadata !259, metadata !263, metadata !268, metadata !271, metadata !274, metadata !277, metadata !278, metadata !281, metadata !757, metadata !760, metadata !761, metadata !764, metadata !767, metadata !770, metadata !771, metadata !772, metadata !775, metadata !776, metadata !777}
!111 = metadata !{i32 589837, metadata !109, metadata !"_M_impl", metadata !109, i32 277, i64 64, i64 64, i64 0, i32 1, metadata !112} ; [ DW_TAG_member ]
!112 = metadata !{i32 589839, metadata !2, metadata !"", null, i32 0, i64 64, i64 64, i64 0, i32 0, metadata !113} ; [ DW_TAG_pointer_type ]
!113 = metadata !{i32 589826, metadata !107, metadata !"_Impl", metadata !109, i32 464, i64 320, i64 64, i32 0, i32 0, null, metadata !114, i32 0, null, metadata !89} ; [ DW_TAG_class_type ]
!114 = metadata !{metadata !115, metadata !116, metadata !189, metadata !190, metadata !191, metadata !194, metadata !198, metadata !199, metadata !204, metadata !207, metadata !210, metadata !211, metadata !214, metadata !215, metadata !219, metadata !224, metadata !248, metadata !251, metadata !254, metadata !257, metadata !258}
!115 = metadata !{i32 589837, metadata !109, metadata !"_M_refcount", metadata !109, i32 484, i64 32, i64 32, i64 0, i32 1, metadata !78} ; [ DW_TAG_member ]
!116 = metadata !{i32 589837, metadata !109, metadata !"_M_facets", metadata !109, i32 485, i64 64, i64 64, i64 64, i32 1, metadata !117} ; [ DW_TAG_member ]
!117 = metadata !{i32 589839, metadata !2, metadata !"", null, i32 0, i64 64, i64 64, i64 0, i32 0, metadata !118} ; [ DW_TAG_pointer_type ]
!118 = metadata !{i32 589839, metadata !2, metadata !"", null, i32 0, i64 64, i64 64, i64 0, i32 0, metadata !119} ; [ DW_TAG_pointer_type ]
!119 = metadata !{i32 589862, metadata !2, metadata !"", null, i32 0, i64 0, i64 0, i64 0, i32 0, metadata !120} ; [ DW_TAG_const_type ]
!120 = metadata !{i32 589826, metadata !107, metadata !"facet", metadata !109, i32 334, i64 128, i64 64, i32 0, i32 0, null, metadata !121, i32 0, metadata !120, metadata !89} ; [ DW_TAG_class_type ]
!121 = metadata !{metadata !122, metadata !123, metadata !124, metadata !127, metadata !133, metadata !136, metadata !165, metadata !168, metadata !171, metadata !174, metadata !177, metadata !178, metadata !179, metadata !183, metadata !187, metadata !188}
!122 = metadata !{i32 589837, metadata !109, metadata !"_vptr$facet", metadata !109, i32 0, i64 64, i64 0, i64 0, i32 0, metadata !50} ; [ DW_TAG_member ]
!123 = metadata !{i32 589837, metadata !109, metadata !"_M_refcount", metadata !109, i32 340, i64 32, i64 32, i64 64, i32 1, metadata !78} ; [ DW_TAG_member ]
!124 = metadata !{i32 589870, i32 0, metadata !120, metadata !"_S_initialize_once", metadata !"_S_initialize_once", metadata !"_ZNSt6locale5facet18_S_initialize_onceEv", metadata !109, i32 353, metadata !125, i1 false, i1 false, i32 0, i32 0, null, i32 257, i1 false, null} ; [ DW_TAG_subprogram ]
!125 = metadata !{i32 589845, metadata !109, metadata !"", metadata !109, i32 0, i64 0, i64 0, i32 0, i32 0, i32 0, metadata !126, i32 0, i32 0} ; [ DW_TAG_subroutine_type ]
!126 = metadata !{null}
!127 = metadata !{i32 589870, i32 0, metadata !120, metadata !"facet", metadata !"facet", metadata !"", metadata !109, i32 366, metadata !128, i1 false, i1 false, i32 0, i32 0, null, i32 386, i1 false, null} ; [ DW_TAG_subprogram ]
!128 = metadata !{i32 589845, metadata !109, metadata !"", metadata !109, i32 0, i64 0, i64 0, i32 0, i32 0, i32 0, metadata !129, i32 0, i32 0} ; [ DW_TAG_subroutine_type ]
!129 = metadata !{null, metadata !130, metadata !131}
!130 = metadata !{i32 589839, metadata !2, metadata !"", i32 0, i32 0, i64 64, i64 64, i64 0, i32 64, metadata !120} ; [ DW_TAG_pointer_type ]
!131 = metadata !{i32 589846, metadata !2, metadata !"size_t", metadata !109, i32 32, i64 0, i64 0, i64 0, i32 0, metadata !132} ; [ DW_TAG_typedef ]
!132 = metadata !{i32 589860, metadata !2, metadata !"long unsigned int", null, i32 0, i64 64, i64 64, i64 0, i32 0, i32 7} ; [ DW_TAG_base_type ]
!133 = metadata !{i32 589870, i32 0, metadata !120, metadata !"~facet", metadata !"~facet", metadata !"", metadata !109, i32 371, metadata !134, i1 false, i1 false, i32 1, i32 0, metadata !120, i32 258, i1 false, null} ; [ DW_TAG_subprogram ]
!134 = metadata !{i32 589845, metadata !109, metadata !"", metadata !109, i32 0, i64 0, i64 0, i32 0, i32 0, i32 0, metadata !135, i32 0, i32 0} ; [ DW_TAG_subroutine_type ]
!135 = metadata !{null, metadata !130}
!136 = metadata !{i32 589870, i32 0, metadata !120, metadata !"_S_create_c_locale", metadata !"_S_create_c_locale", metadata !"_ZNSt6locale5facet18_S_create_c_localeERP15__locale_structPKcS2_", metadata !109, i32 374, metadata !137, i1 false, i1 false, i32 0, i32 0, null, i32 258, i1 false, null} ; [ DW_TAG_subprogram ]
!137 = metadata !{i32 589845, metadata !109, metadata !"", metadata !109, i32 0, i64 0, i64 0, i32 0, i32 0, i32 0, metadata !138, i32 0, i32 0} ; [ DW_TAG_subroutine_type ]
!138 = metadata !{null, metadata !139, metadata !162, metadata !140}
!139 = metadata !{i32 589840, metadata !2, null, null, i32 0, i64 0, i64 0, i64 0, i32 0, metadata !140} ; [ DW_TAG_reference_type ]
!140 = metadata !{i32 589846, metadata !2, metadata !"__c_locale", metadata !109, i32 58, i64 0, i64 0, i64 0, i32 0, metadata !141} ; [ DW_TAG_typedef ]
!141 = metadata !{i32 589846, metadata !2, metadata !"__locale_t", metadata !109, i32 40, i64 0, i64 0, i64 0, i32 0, metadata !142} ; [ DW_TAG_typedef ]
!142 = metadata !{i32 589839, metadata !2, metadata !"", null, i32 0, i64 64, i64 64, i64 0, i32 0, metadata !143} ; [ DW_TAG_pointer_type ]
!143 = metadata !{i32 589826, metadata !2, metadata !"__locale_struct", metadata !144, i32 28, i64 1856, i64 64, i32 0, i32 0, null, metadata !145, i32 0, null, metadata !89} ; [ DW_TAG_class_type ]
!144 = metadata !{i32 589865, metadata !"/usr/include/xlocale.h", metadata !"/home/brian/llvm/tools/clang-2.9", metadata !2} ; [ DW_TAG_file_type ]
!145 = metadata !{metadata !146, metadata !152, metadata !156, metadata !159, metadata !160}
!146 = metadata !{i32 589837, metadata !144, metadata !"__locales", metadata !144, i32 31, i64 832, i64 64, i64 0, i32 0, metadata !147} ; [ DW_TAG_member ]
!147 = metadata !{i32 589825, metadata !2, metadata !"", metadata !2, i32 0, i64 832, i64 64, i32 0, i32 0, metadata !148, metadata !150, i32 0, i32 0} ; [ DW_TAG_array_type ]
!148 = metadata !{i32 589839, metadata !2, metadata !"", null, i32 0, i64 64, i64 64, i64 0, i32 0, metadata !149} ; [ DW_TAG_pointer_type ]
!149 = metadata !{i32 589843, metadata !2, metadata !"locale_data", metadata !144, i32 31, i64 0, i64 0, i32 0, i32 4, i32 0, null, i32 0, i32 0} ; [ DW_TAG_structure_type ]
!150 = metadata !{metadata !151}
!151 = metadata !{i32 589857, i64 0, i64 12}      ; [ DW_TAG_subrange_type ]
!152 = metadata !{i32 589837, metadata !144, metadata !"__ctype_b", metadata !144, i32 34, i64 64, i64 64, i64 832, i32 0, metadata !153} ; [ DW_TAG_member ]
!153 = metadata !{i32 589839, metadata !2, metadata !"", null, i32 0, i64 64, i64 64, i64 0, i32 0, metadata !154} ; [ DW_TAG_pointer_type ]
!154 = metadata !{i32 589862, metadata !2, metadata !"", null, i32 0, i64 0, i64 0, i64 0, i32 0, metadata !155} ; [ DW_TAG_const_type ]
!155 = metadata !{i32 589860, metadata !2, metadata !"unsigned short", null, i32 0, i64 16, i64 16, i64 0, i32 0, i32 7} ; [ DW_TAG_base_type ]
!156 = metadata !{i32 589837, metadata !144, metadata !"__ctype_tolower", metadata !144, i32 35, i64 64, i64 64, i64 896, i32 0, metadata !157} ; [ DW_TAG_member ]
!157 = metadata !{i32 589839, metadata !2, metadata !"", null, i32 0, i64 64, i64 64, i64 0, i32 0, metadata !158} ; [ DW_TAG_pointer_type ]
!158 = metadata !{i32 589862, metadata !2, metadata !"", null, i32 0, i64 0, i64 0, i64 0, i32 0, metadata !54} ; [ DW_TAG_const_type ]
!159 = metadata !{i32 589837, metadata !144, metadata !"__ctype_toupper", metadata !144, i32 36, i64 64, i64 64, i64 960, i32 0, metadata !157} ; [ DW_TAG_member ]
!160 = metadata !{i32 589837, metadata !144, metadata !"__names", metadata !144, i32 39, i64 832, i64 64, i64 1024, i32 0, metadata !161} ; [ DW_TAG_member ]
!161 = metadata !{i32 589825, metadata !2, metadata !"", metadata !2, i32 0, i64 832, i64 64, i32 0, i32 0, metadata !162, metadata !150, i32 0, i32 0} ; [ DW_TAG_array_type ]
!162 = metadata !{i32 589839, metadata !2, metadata !"", null, i32 0, i64 64, i64 64, i64 0, i32 0, metadata !163} ; [ DW_TAG_pointer_type ]
!163 = metadata !{i32 589862, metadata !2, metadata !"", null, i32 0, i64 0, i64 0, i64 0, i32 0, metadata !164} ; [ DW_TAG_const_type ]
!164 = metadata !{i32 589860, metadata !2, metadata !"char", null, i32 0, i64 8, i64 8, i64 0, i32 0, i32 6} ; [ DW_TAG_base_type ]
!165 = metadata !{i32 589870, i32 0, metadata !120, metadata !"_S_clone_c_locale", metadata !"_S_clone_c_locale", metadata !"_ZNSt6locale5facet17_S_clone_c_localeERP15__locale_struct", metadata !109, i32 378, metadata !166, i1 false, i1 false, i32 0, i32 0, null, i32 258, i1 false, null} ; [ DW_TAG_subprogram ]
!166 = metadata !{i32 589845, metadata !109, metadata !"", metadata !109, i32 0, i64 0, i64 0, i32 0, i32 0, i32 0, metadata !167, i32 0, i32 0} ; [ DW_TAG_subroutine_type ]
!167 = metadata !{metadata !140, metadata !139}
!168 = metadata !{i32 589870, i32 0, metadata !120, metadata !"_S_destroy_c_locale", metadata !"_S_destroy_c_locale", metadata !"_ZNSt6locale5facet19_S_destroy_c_localeERP15__locale_struct", metadata !109, i32 381, metadata !169, i1 false, i1 false, i32 0, i32 0, null, i32 258, i1 false, null} ; [ DW_TAG_subprogram ]
!169 = metadata !{i32 589845, metadata !109, metadata !"", metadata !109, i32 0, i64 0, i64 0, i32 0, i32 0, i32 0, metadata !170, i32 0, i32 0} ; [ DW_TAG_subroutine_type ]
!170 = metadata !{null, metadata !139}
!171 = metadata !{i32 589870, i32 0, metadata !120, metadata !"_S_get_c_locale", metadata !"_S_get_c_locale", metadata !"_ZNSt6locale5facet15_S_get_c_localeEv", metadata !109, i32 386, metadata !172, i1 false, i1 false, i32 0, i32 0, null, i32 258, i1 false, null} ; [ DW_TAG_subprogram ]
!172 = metadata !{i32 589845, metadata !109, metadata !"", metadata !109, i32 0, i64 0, i64 0, i32 0, i32 0, i32 0, metadata !173, i32 0, i32 0} ; [ DW_TAG_subroutine_type ]
!173 = metadata !{metadata !140}
!174 = metadata !{i32 589870, i32 0, metadata !120, metadata !"_S_get_c_name", metadata !"_S_get_c_name", metadata !"_ZNSt6locale5facet13_S_get_c_nameEv", metadata !109, i32 389, metadata !175, i1 false, i1 false, i32 0, i32 0, null, i32 258, i1 false, null} ; [ DW_TAG_subprogram ]
!175 = metadata !{i32 589845, metadata !109, metadata !"", metadata !109, i32 0, i64 0, i64 0, i32 0, i32 0, i32 0, metadata !176, i32 0, i32 0} ; [ DW_TAG_subroutine_type ]
!176 = metadata !{metadata !162}
!177 = metadata !{i32 589870, i32 0, metadata !120, metadata !"_M_add_reference", metadata !"_M_add_reference", metadata !"_ZNKSt6locale5facet16_M_add_referenceEv", metadata !109, i32 393, metadata !134, i1 false, i1 false, i32 0, i32 0, null, i32 257, i1 false, null} ; [ DW_TAG_subprogram ]
!178 = metadata !{i32 589870, i32 0, metadata !120, metadata !"_M_remove_reference", metadata !"_M_remove_reference", metadata !"_ZNKSt6locale5facet19_M_remove_referenceEv", metadata !109, i32 397, metadata !134, i1 false, i1 false, i32 0, i32 0, null, i32 257, i1 false, null} ; [ DW_TAG_subprogram ]
!179 = metadata !{i32 589870, i32 0, metadata !120, metadata !"facet", metadata !"facet", metadata !"", metadata !109, i32 408, metadata !180, i1 false, i1 false, i32 0, i32 0, null, i32 257, i1 false, null} ; [ DW_TAG_subprogram ]
!180 = metadata !{i32 589845, metadata !109, metadata !"", metadata !109, i32 0, i64 0, i64 0, i32 0, i32 0, i32 0, metadata !181, i32 0, i32 0} ; [ DW_TAG_subroutine_type ]
!181 = metadata !{null, metadata !130, metadata !182}
!182 = metadata !{i32 589840, metadata !2, null, null, i32 0, i64 0, i64 0, i64 0, i32 0, metadata !119} ; [ DW_TAG_reference_type ]
!183 = metadata !{i32 589870, i32 0, metadata !120, metadata !"operator=", metadata !"operator=", metadata !"_ZNSt6locale5facetaSERKS0_", metadata !109, i32 411, metadata !184, i1 false, i1 false, i32 0, i32 0, null, i32 257, i1 false, null} ; [ DW_TAG_subprogram ]
!184 = metadata !{i32 589845, metadata !109, metadata !"", metadata !109, i32 0, i64 0, i64 0, i32 0, i32 0, i32 0, metadata !185, i32 0, i32 0} ; [ DW_TAG_subroutine_type ]
!185 = metadata !{metadata !186, metadata !130, metadata !182}
!186 = metadata !{i32 589840, metadata !2, null, null, i32 0, i64 0, i64 0, i64 0, i32 0, metadata !120} ; [ DW_TAG_reference_type ]
!187 = metadata !{i32 589866, metadata !120, null, metadata !109, i32 0, i64 0, i64 0, i64 0, i32 0, metadata !113} ; [ DW_TAG_friend ]
!188 = metadata !{i32 589866, metadata !120, null, metadata !109, i32 0, i64 0, i64 0, i64 0, i32 0, metadata !107} ; [ DW_TAG_friend ]
!189 = metadata !{i32 589837, metadata !109, metadata !"_M_facets_size", metadata !109, i32 486, i64 64, i64 64, i64 128, i32 1, metadata !131} ; [ DW_TAG_member ]
!190 = metadata !{i32 589837, metadata !109, metadata !"_M_caches", metadata !109, i32 487, i64 64, i64 64, i64 192, i32 1, metadata !117} ; [ DW_TAG_member ]
!191 = metadata !{i32 589837, metadata !109, metadata !"_M_names", metadata !109, i32 488, i64 64, i64 64, i64 256, i32 1, metadata !192} ; [ DW_TAG_member ]
!192 = metadata !{i32 589839, metadata !2, metadata !"", null, i32 0, i64 64, i64 64, i64 0, i32 0, metadata !193} ; [ DW_TAG_pointer_type ]
!193 = metadata !{i32 589839, metadata !2, metadata !"", null, i32 0, i64 64, i64 64, i64 0, i32 0, metadata !164} ; [ DW_TAG_pointer_type ]
!194 = metadata !{i32 589870, i32 0, metadata !113, metadata !"_M_add_reference", metadata !"_M_add_reference", metadata !"_ZNSt6locale5_Impl16_M_add_referenceEv", metadata !109, i32 498, metadata !195, i1 false, i1 false, i32 0, i32 0, null, i32 257, i1 false, null} ; [ DW_TAG_subprogram ]
!195 = metadata !{i32 589845, metadata !109, metadata !"", metadata !109, i32 0, i64 0, i64 0, i32 0, i32 0, i32 0, metadata !196, i32 0, i32 0} ; [ DW_TAG_subroutine_type ]
!196 = metadata !{null, metadata !197}
!197 = metadata !{i32 589839, metadata !2, metadata !"", i32 0, i32 0, i64 64, i64 64, i64 0, i32 64, metadata !113} ; [ DW_TAG_pointer_type ]
!198 = metadata !{i32 589870, i32 0, metadata !113, metadata !"_M_remove_reference", metadata !"_M_remove_reference", metadata !"_ZNSt6locale5_Impl19_M_remove_referenceEv", metadata !109, i32 502, metadata !195, i1 false, i1 false, i32 0, i32 0, null, i32 257, i1 false, null} ; [ DW_TAG_subprogram ]
!199 = metadata !{i32 589870, i32 0, metadata !113, metadata !"_Impl", metadata !"_Impl", metadata !"", metadata !109, i32 513, metadata !200, i1 false, i1 false, i32 0, i32 0, null, i32 257, i1 false, null} ; [ DW_TAG_subprogram ]
!200 = metadata !{i32 589845, metadata !109, metadata !"", metadata !109, i32 0, i64 0, i64 0, i32 0, i32 0, i32 0, metadata !201, i32 0, i32 0} ; [ DW_TAG_subroutine_type ]
!201 = metadata !{null, metadata !197, metadata !202, metadata !131}
!202 = metadata !{i32 589840, metadata !2, null, null, i32 0, i64 0, i64 0, i64 0, i32 0, metadata !203} ; [ DW_TAG_reference_type ]
!203 = metadata !{i32 589862, metadata !2, metadata !"", null, i32 0, i64 0, i64 0, i64 0, i32 0, metadata !113} ; [ DW_TAG_const_type ]
!204 = metadata !{i32 589870, i32 0, metadata !113, metadata !"_Impl", metadata !"_Impl", metadata !"", metadata !109, i32 514, metadata !205, i1 false, i1 false, i32 0, i32 0, null, i32 257, i1 false, null} ; [ DW_TAG_subprogram ]
!205 = metadata !{i32 589845, metadata !109, metadata !"", metadata !109, i32 0, i64 0, i64 0, i32 0, i32 0, i32 0, metadata !206, i32 0, i32 0} ; [ DW_TAG_subroutine_type ]
!206 = metadata !{null, metadata !197, metadata !162, metadata !131}
!207 = metadata !{i32 589870, i32 0, metadata !113, metadata !"_Impl", metadata !"_Impl", metadata !"", metadata !109, i32 515, metadata !208, i1 false, i1 false, i32 0, i32 0, null, i32 257, i1 false, null} ; [ DW_TAG_subprogram ]
!208 = metadata !{i32 589845, metadata !109, metadata !"", metadata !109, i32 0, i64 0, i64 0, i32 0, i32 0, i32 0, metadata !209, i32 0, i32 0} ; [ DW_TAG_subroutine_type ]
!209 = metadata !{null, metadata !197, metadata !131}
!210 = metadata !{i32 589870, i32 0, metadata !113, metadata !"~_Impl", metadata !"~_Impl", metadata !"", metadata !109, i32 517, metadata !195, i1 false, i1 false, i32 0, i32 0, null, i32 257, i1 false, null} ; [ DW_TAG_subprogram ]
!211 = metadata !{i32 589870, i32 0, metadata !113, metadata !"_Impl", metadata !"_Impl", metadata !"", metadata !109, i32 519, metadata !212, i1 false, i1 false, i32 0, i32 0, null, i32 257, i1 false, null} ; [ DW_TAG_subprogram ]
!212 = metadata !{i32 589845, metadata !109, metadata !"", metadata !109, i32 0, i64 0, i64 0, i32 0, i32 0, i32 0, metadata !213, i32 0, i32 0} ; [ DW_TAG_subroutine_type ]
!213 = metadata !{null, metadata !197, metadata !202}
!214 = metadata !{i32 589870, i32 0, metadata !113, metadata !"operator=", metadata !"operator=", metadata !"_ZNSt6locale5_ImplaSERKS0_", metadata !109, i32 522, metadata !212, i1 false, i1 false, i32 0, i32 0, null, i32 257, i1 false, null} ; [ DW_TAG_subprogram ]
!215 = metadata !{i32 589870, i32 0, metadata !113, metadata !"_M_check_same_name", metadata !"_M_check_same_name", metadata !"_ZNSt6locale5_Impl18_M_check_same_nameEv", metadata !109, i32 525, metadata !216, i1 false, i1 false, i32 0, i32 0, null, i32 257, i1 false, null} ; [ DW_TAG_subprogram ]
!216 = metadata !{i32 589845, metadata !109, metadata !"", metadata !109, i32 0, i64 0, i64 0, i32 0, i32 0, i32 0, metadata !217, i32 0, i32 0} ; [ DW_TAG_subroutine_type ]
!217 = metadata !{metadata !218, metadata !197}
!218 = metadata !{i32 589860, metadata !2, metadata !"bool", null, i32 0, i64 8, i64 8, i64 0, i32 0, i32 2} ; [ DW_TAG_base_type ]
!219 = metadata !{i32 589870, i32 0, metadata !113, metadata !"_M_replace_categories", metadata !"_M_replace_categories", metadata !"_ZNSt6locale5_Impl21_M_replace_categoriesEPKS0_i", metadata !109, i32 536, metadata !220, i1 false, i1 false, i32 0, i32 0, null, i32 257, i1 false, null} ; [ DW_TAG_subprogram ]
!220 = metadata !{i32 589845, metadata !109, metadata !"", metadata !109, i32 0, i64 0, i64 0, i32 0, i32 0, i32 0, metadata !221, i32 0, i32 0} ; [ DW_TAG_subroutine_type ]
!221 = metadata !{null, metadata !197, metadata !222, metadata !223}
!222 = metadata !{i32 589839, metadata !2, metadata !"", null, i32 0, i64 64, i64 64, i64 0, i32 0, metadata !203} ; [ DW_TAG_pointer_type ]
!223 = metadata !{i32 589846, metadata !2, metadata !"category", metadata !109, i32 65, i64 0, i64 0, i64 0, i32 0, metadata !54} ; [ DW_TAG_typedef ]
!224 = metadata !{i32 589870, i32 0, metadata !113, metadata !"_M_replace_category", metadata !"_M_replace_category", metadata !"_ZNSt6locale5_Impl19_M_replace_categoryEPKS0_PKPKNS_2idE", metadata !109, i32 539, metadata !225, i1 false, i1 false, i32 0, i32 0, null, i32 257, i1 false, null} ; [ DW_TAG_subprogram ]
!225 = metadata !{i32 589845, metadata !109, metadata !"", metadata !109, i32 0, i64 0, i64 0, i32 0, i32 0, i32 0, metadata !226, i32 0, i32 0} ; [ DW_TAG_subroutine_type ]
!226 = metadata !{null, metadata !197, metadata !222, metadata !227}
!227 = metadata !{i32 589839, metadata !2, metadata !"", null, i32 0, i64 64, i64 64, i64 0, i32 0, metadata !228} ; [ DW_TAG_pointer_type ]
!228 = metadata !{i32 589862, metadata !2, metadata !"", null, i32 0, i64 0, i64 0, i64 0, i32 0, metadata !229} ; [ DW_TAG_const_type ]
!229 = metadata !{i32 589839, metadata !2, metadata !"", null, i32 0, i64 64, i64 64, i64 0, i32 0, metadata !230} ; [ DW_TAG_pointer_type ]
!230 = metadata !{i32 589826, metadata !107, metadata !"id", metadata !109, i32 425, i64 64, i64 64, i32 0, i32 0, null, metadata !231, i32 0, null, metadata !89} ; [ DW_TAG_class_type ]
!231 = metadata !{metadata !232, metadata !233, metadata !239, metadata !240, metadata !243, metadata !246, metadata !247}
!232 = metadata !{i32 589837, metadata !109, metadata !"_M_index", metadata !109, i32 442, i64 64, i64 64, i64 0, i32 1, metadata !131} ; [ DW_TAG_member ]
!233 = metadata !{i32 589870, i32 0, metadata !230, metadata !"operator=", metadata !"operator=", metadata !"_ZNSt6locale2idaSERKS0_", metadata !109, i32 448, metadata !234, i1 false, i1 false, i32 0, i32 0, null, i32 257, i1 false, null} ; [ DW_TAG_subprogram ]
!234 = metadata !{i32 589845, metadata !109, metadata !"", metadata !109, i32 0, i64 0, i64 0, i32 0, i32 0, i32 0, metadata !235, i32 0, i32 0} ; [ DW_TAG_subroutine_type ]
!235 = metadata !{null, metadata !236, metadata !237}
!236 = metadata !{i32 589839, metadata !2, metadata !"", i32 0, i32 0, i64 64, i64 64, i64 0, i32 64, metadata !230} ; [ DW_TAG_pointer_type ]
!237 = metadata !{i32 589840, metadata !2, null, null, i32 0, i64 0, i64 0, i64 0, i32 0, metadata !238} ; [ DW_TAG_reference_type ]
!238 = metadata !{i32 589862, metadata !2, metadata !"", null, i32 0, i64 0, i64 0, i64 0, i32 0, metadata !230} ; [ DW_TAG_const_type ]
!239 = metadata !{i32 589870, i32 0, metadata !230, metadata !"id", metadata !"id", metadata !"", metadata !109, i32 450, metadata !234, i1 false, i1 false, i32 0, i32 0, null, i32 257, i1 false, null} ; [ DW_TAG_subprogram ]
!240 = metadata !{i32 589870, i32 0, metadata !230, metadata !"id", metadata !"id", metadata !"", metadata !109, i32 456, metadata !241, i1 false, i1 false, i32 0, i32 0, null, i32 256, i1 false, null} ; [ DW_TAG_subprogram ]
!241 = metadata !{i32 589845, metadata !109, metadata !"", metadata !109, i32 0, i64 0, i64 0, i32 0, i32 0, i32 0, metadata !242, i32 0, i32 0} ; [ DW_TAG_subroutine_type ]
!242 = metadata !{null, metadata !236}
!243 = metadata !{i32 589870, i32 0, metadata !230, metadata !"_M_id", metadata !"_M_id", metadata !"_ZNKSt6locale2id5_M_idEv", metadata !109, i32 459, metadata !244, i1 false, i1 false, i32 0, i32 0, null, i32 256, i1 false, null} ; [ DW_TAG_subprogram ]
!244 = metadata !{i32 589845, metadata !109, metadata !"", metadata !109, i32 0, i64 0, i64 0, i32 0, i32 0, i32 0, metadata !245, i32 0, i32 0} ; [ DW_TAG_subroutine_type ]
!245 = metadata !{metadata !131, metadata !236}
!246 = metadata !{i32 589866, metadata !230, null, metadata !109, i32 0, i64 0, i64 0, i64 0, i32 0, metadata !113} ; [ DW_TAG_friend ]
!247 = metadata !{i32 589866, metadata !230, null, metadata !109, i32 0, i64 0, i64 0, i64 0, i32 0, metadata !107} ; [ DW_TAG_friend ]
!248 = metadata !{i32 589870, i32 0, metadata !113, metadata !"_M_replace_facet", metadata !"_M_replace_facet", metadata !"_ZNSt6locale5_Impl16_M_replace_facetEPKS0_PKNS_2idE", metadata !109, i32 542, metadata !249, i1 false, i1 false, i32 0, i32 0, null, i32 257, i1 false, null} ; [ DW_TAG_subprogram ]
!249 = metadata !{i32 589845, metadata !109, metadata !"", metadata !109, i32 0, i64 0, i64 0, i32 0, i32 0, i32 0, metadata !250, i32 0, i32 0} ; [ DW_TAG_subroutine_type ]
!250 = metadata !{null, metadata !197, metadata !222, metadata !229}
!251 = metadata !{i32 589870, i32 0, metadata !113, metadata !"_M_install_facet", metadata !"_M_install_facet", metadata !"_ZNSt6locale5_Impl16_M_install_facetEPKNS_2idEPKNS_5facetE", metadata !109, i32 545, metadata !252, i1 false, i1 false, i32 0, i32 0, null, i32 257, i1 false, null} ; [ DW_TAG_subprogram ]
!252 = metadata !{i32 589845, metadata !109, metadata !"", metadata !109, i32 0, i64 0, i64 0, i32 0, i32 0, i32 0, metadata !253, i32 0, i32 0} ; [ DW_TAG_subroutine_type ]
!253 = metadata !{null, metadata !197, metadata !229, metadata !118}
!254 = metadata !{i32 589870, i32 0, metadata !113, metadata !"_M_install_cache", metadata !"_M_install_cache", metadata !"_ZNSt6locale5_Impl16_M_install_cacheEPKNS_5facetEm", metadata !109, i32 553, metadata !255, i1 false, i1 false, i32 0, i32 0, null, i32 257, i1 false, null} ; [ DW_TAG_subprogram ]
!255 = metadata !{i32 589845, metadata !109, metadata !"", metadata !109, i32 0, i64 0, i64 0, i32 0, i32 0, i32 0, metadata !256, i32 0, i32 0} ; [ DW_TAG_subroutine_type ]
!256 = metadata !{null, metadata !197, metadata !118, metadata !131}
!257 = metadata !{i32 589866, metadata !113, null, metadata !109, i32 0, i64 0, i64 0, i64 0, i32 0, metadata !120} ; [ DW_TAG_friend ]
!258 = metadata !{i32 589866, metadata !113, null, metadata !109, i32 0, i64 0, i64 0, i64 0, i32 0, metadata !107} ; [ DW_TAG_friend ]
!259 = metadata !{i32 589870, i32 0, metadata !107, metadata !"locale", metadata !"locale", metadata !"", metadata !109, i32 115, metadata !260, i1 false, i1 false, i32 0, i32 0, null, i32 256, i1 false, null} ; [ DW_TAG_subprogram ]
!260 = metadata !{i32 589845, metadata !109, metadata !"", metadata !109, i32 0, i64 0, i64 0, i32 0, i32 0, i32 0, metadata !261, i32 0, i32 0} ; [ DW_TAG_subroutine_type ]
!261 = metadata !{null, metadata !262}
!262 = metadata !{i32 589839, metadata !2, metadata !"", i32 0, i32 0, i64 64, i64 64, i64 0, i32 64, metadata !107} ; [ DW_TAG_pointer_type ]
!263 = metadata !{i32 589870, i32 0, metadata !107, metadata !"locale", metadata !"locale", metadata !"", metadata !109, i32 124, metadata !264, i1 false, i1 false, i32 0, i32 0, null, i32 256, i1 false, null} ; [ DW_TAG_subprogram ]
!264 = metadata !{i32 589845, metadata !109, metadata !"", metadata !109, i32 0, i64 0, i64 0, i32 0, i32 0, i32 0, metadata !265, i32 0, i32 0} ; [ DW_TAG_subroutine_type ]
!265 = metadata !{null, metadata !262, metadata !266}
!266 = metadata !{i32 589840, metadata !2, null, null, i32 0, i64 0, i64 0, i64 0, i32 0, metadata !267} ; [ DW_TAG_reference_type ]
!267 = metadata !{i32 589862, metadata !2, metadata !"", null, i32 0, i64 0, i64 0, i64 0, i32 0, metadata !107} ; [ DW_TAG_const_type ]
!268 = metadata !{i32 589870, i32 0, metadata !107, metadata !"locale", metadata !"locale", metadata !"", metadata !109, i32 135, metadata !269, i1 false, i1 false, i32 0, i32 0, null, i32 384, i1 false, null} ; [ DW_TAG_subprogram ]
!269 = metadata !{i32 589845, metadata !109, metadata !"", metadata !109, i32 0, i64 0, i64 0, i32 0, i32 0, i32 0, metadata !270, i32 0, i32 0} ; [ DW_TAG_subroutine_type ]
!270 = metadata !{null, metadata !262, metadata !162}
!271 = metadata !{i32 589870, i32 0, metadata !107, metadata !"locale", metadata !"locale", metadata !"", metadata !109, i32 149, metadata !272, i1 false, i1 false, i32 0, i32 0, null, i32 256, i1 false, null} ; [ DW_TAG_subprogram ]
!272 = metadata !{i32 589845, metadata !109, metadata !"", metadata !109, i32 0, i64 0, i64 0, i32 0, i32 0, i32 0, metadata !273, i32 0, i32 0} ; [ DW_TAG_subroutine_type ]
!273 = metadata !{null, metadata !262, metadata !266, metadata !162, metadata !223}
!274 = metadata !{i32 589870, i32 0, metadata !107, metadata !"locale", metadata !"locale", metadata !"", metadata !109, i32 162, metadata !275, i1 false, i1 false, i32 0, i32 0, null, i32 256, i1 false, null} ; [ DW_TAG_subprogram ]
!275 = metadata !{i32 589845, metadata !109, metadata !"", metadata !109, i32 0, i64 0, i64 0, i32 0, i32 0, i32 0, metadata !276, i32 0, i32 0} ; [ DW_TAG_subroutine_type ]
!276 = metadata !{null, metadata !262, metadata !266, metadata !266, metadata !223}
!277 = metadata !{i32 589870, i32 0, metadata !107, metadata !"~locale", metadata !"~locale", metadata !"", metadata !109, i32 178, metadata !260, i1 false, i1 false, i32 0, i32 0, null, i32 256, i1 false, null} ; [ DW_TAG_subprogram ]
!278 = metadata !{i32 589870, i32 0, metadata !107, metadata !"operator=", metadata !"operator=", metadata !"_ZNSt6localeaSERKS_", metadata !109, i32 189, metadata !279, i1 false, i1 false, i32 0, i32 0, null, i32 256, i1 false, null} ; [ DW_TAG_subprogram ]
!279 = metadata !{i32 589845, metadata !109, metadata !"", metadata !109, i32 0, i64 0, i64 0, i32 0, i32 0, i32 0, metadata !280, i32 0, i32 0} ; [ DW_TAG_subroutine_type ]
!280 = metadata !{metadata !266, metadata !262, metadata !266}
!281 = metadata !{i32 589870, i32 0, metadata !107, metadata !"name", metadata !"name", metadata !"_ZNKSt6locale4nameEv", metadata !109, i32 213, metadata !282, i1 false, i1 false, i32 0, i32 0, null, i32 256, i1 false, null} ; [ DW_TAG_subprogram ]
!282 = metadata !{i32 589845, metadata !109, metadata !"", metadata !109, i32 0, i64 0, i64 0, i32 0, i32 0, i32 0, metadata !283, i32 0, i32 0} ; [ DW_TAG_subroutine_type ]
!283 = metadata !{metadata !284, metadata !262}
!284 = metadata !{i32 589846, metadata !285, metadata !"string", metadata !109, i32 55, i64 0, i64 0, i64 0, i32 0, metadata !287} ; [ DW_TAG_typedef ]
!285 = metadata !{i32 589881, metadata !2, metadata !"std", metadata !286, i32 41} ; [ DW_TAG_namespace ]
!286 = metadata !{i32 589865, metadata !"/usr/include/c++/4.4/bits/stringfwd.h", metadata !"/home/brian/llvm/tools/clang-2.9", metadata !2} ; [ DW_TAG_file_type ]
!287 = metadata !{i32 589826, metadata !285, metadata !"basic_string<char>", metadata !288, i32 1133, i64 64, i64 64, i32 0, i32 0, null, metadata !289, i32 0, null, metadata !703} ; [ DW_TAG_class_type ]
!288 = metadata !{i32 589865, metadata !"/usr/include/c++/4.4/bits/basic_string.tcc", metadata !"/home/brian/llvm/tools/clang-2.9", metadata !2} ; [ DW_TAG_file_type ]
!289 = metadata !{metadata !290, metadata !360, metadata !364, metadata !367, metadata !414, metadata !421, metadata !422, metadata !425, metadata !428, metadata !431, metadata !434, metadata !437, metadata !440, metadata !441, metadata !444, metadata !447, metadata !451, metadata !454, metadata !455, metadata !458, metadata !461, metadata !462, metadata !464, metadata !465, metadata !468, metadata !473, metadata !476, metadata !479, metadata !482, metadata !485, metadata !488, metadata !489, metadata !493, metadata !496, metadata !499, metadata !500, metadata !503, metadata !504, metadata !505, metadata !511, metadata !515, metadata !516, metadata !517, metadata !520, metadata !521, metadata !522, metadata !525, metadata !528, metadata !529, metadata !530, metadata !531, metadata !534, metadata !539, metadata !544, metadata !545, metadata !546, metadata !547, metadata !548, metadata !549, metadata !550, metadata !553, metadata !556, metadata !557, metadata !560, metadata !563, metadata !564, metadata !565, metadata !566, metadata !567, metadata !568, metadata !571, metadata !574, metadata !577, metadata !580, metadata !583, metadata !586, metadata !589, metadata !592, metadata !595, metadata !598, metadata !601, metadata !604, metadata !607, metadata !610, metadata !613, metadata !616, metadata !619, metadata !622, metadata !625, metadata !628, metadata !629, metadata !632, metadata !635, metadata !636, metadata !637, metadata !640, metadata !643, metadata !646, metadata !647, metadata !648, metadata !652, metadata !653, metadata !656, metadata !659, metadata !662, metadata !663, metadata !664, metadata !665, metadata !666, metadata !667, metadata !668, metadata !669, metadata !670, metadata !671, metadata !672, metadata !673, metadata !674, metadata !675, metadata !676, metadata !677, metadata !678, metadata !679, metadata !680, metadata !681, metadata !682, metadata !685, metadata !688, metadata !691, metadata !694, metadata !697, metadata !700}
!290 = metadata !{i32 589837, metadata !291, metadata !"_M_dataplus", metadata !291, i32 273, i64 64, i64 64, i64 0, i32 1, metadata !292} ; [ DW_TAG_member ]
!291 = metadata !{i32 589865, metadata !"/usr/include/c++/4.4/bits/basic_string.h", metadata !"/home/brian/llvm/tools/clang-2.9", metadata !2} ; [ DW_TAG_file_type ]
!292 = metadata !{i32 589826, metadata !287, metadata !"_Alloc_hider", metadata !291, i32 256, i64 64, i64 64, i32 0, i32 0, null, metadata !293, i32 0, null, metadata !89} ; [ DW_TAG_class_type ]
!293 = metadata !{metadata !294, metadata !354, metadata !355}
!294 = metadata !{i32 589852, metadata !292, null, metadata !291, i32 0, i64 0, i64 0, i64 0, i32 0, metadata !295} ; [ DW_TAG_inheritance ]
!295 = metadata !{i32 589826, metadata !285, metadata !"allocator<char>", metadata !296, i32 138, i64 8, i64 8, i32 0, i32 0, null, metadata !297, i32 0, null, metadata !342} ; [ DW_TAG_class_type ]
!296 = metadata !{i32 589865, metadata !"/usr/include/c++/4.4/bits/allocator.h", metadata !"/home/brian/llvm/tools/clang-2.9", metadata !2} ; [ DW_TAG_file_type ]
!297 = metadata !{metadata !298, metadata !344, metadata !348, metadata !353}
!298 = metadata !{i32 589852, metadata !295, null, metadata !296, i32 0, i64 0, i64 0, i64 0, i32 0, metadata !299} ; [ DW_TAG_inheritance ]
!299 = metadata !{i32 589826, metadata !300, metadata !"new_allocator<char>", metadata !301, i32 51, i64 8, i64 8, i32 0, i32 0, null, metadata !302, i32 0, null, metadata !342} ; [ DW_TAG_class_type ]
!300 = metadata !{i32 589881, metadata !2, metadata !"__gnu_cxx", metadata !301, i32 37} ; [ DW_TAG_namespace ]
!301 = metadata !{i32 589865, metadata !"/usr/include/c++/4.4/ext/new_allocator.h", metadata !"/home/brian/llvm/tools/clang-2.9", metadata !2} ; [ DW_TAG_file_type ]
!302 = metadata !{metadata !303, metadata !307, metadata !312, metadata !313, metadata !319, metadata !324, metadata !330, metadata !333, metadata !336, metadata !339}
!303 = metadata !{i32 589870, i32 0, metadata !299, metadata !"new_allocator", metadata !"new_allocator", metadata !"", metadata !301, i32 66, metadata !304, i1 false, i1 false, i32 0, i32 0, null, i32 256, i1 false, null} ; [ DW_TAG_subprogram ]
!304 = metadata !{i32 589845, metadata !301, metadata !"", metadata !301, i32 0, i64 0, i64 0, i32 0, i32 0, i32 0, metadata !305, i32 0, i32 0} ; [ DW_TAG_subroutine_type ]
!305 = metadata !{null, metadata !306}
!306 = metadata !{i32 589839, metadata !2, metadata !"", i32 0, i32 0, i64 64, i64 64, i64 0, i32 64, metadata !299} ; [ DW_TAG_pointer_type ]
!307 = metadata !{i32 589870, i32 0, metadata !299, metadata !"new_allocator", metadata !"new_allocator", metadata !"", metadata !301, i32 68, metadata !308, i1 false, i1 false, i32 0, i32 0, null, i32 256, i1 false, null} ; [ DW_TAG_subprogram ]
!308 = metadata !{i32 589845, metadata !301, metadata !"", metadata !301, i32 0, i64 0, i64 0, i32 0, i32 0, i32 0, metadata !309, i32 0, i32 0} ; [ DW_TAG_subroutine_type ]
!309 = metadata !{null, metadata !306, metadata !310}
!310 = metadata !{i32 589840, metadata !2, null, null, i32 0, i64 0, i64 0, i64 0, i32 0, metadata !311} ; [ DW_TAG_reference_type ]
!311 = metadata !{i32 589862, metadata !2, metadata !"", null, i32 0, i64 0, i64 0, i64 0, i32 0, metadata !299} ; [ DW_TAG_const_type ]
!312 = metadata !{i32 589870, i32 0, metadata !299, metadata !"~new_allocator", metadata !"~new_allocator", metadata !"", metadata !301, i32 73, metadata !304, i1 false, i1 false, i32 0, i32 0, null, i32 256, i1 false, null} ; [ DW_TAG_subprogram ]
!313 = metadata !{i32 589870, i32 0, metadata !299, metadata !"address", metadata !"address", metadata !"_ZNK9__gnu_cxx13new_allocatorIcE7addressERc", metadata !301, i32 76, metadata !314, i1 false, i1 false, i32 0, i32 0, null, i32 256, i1 false, null} ; [ DW_TAG_subprogram ]
!314 = metadata !{i32 589845, metadata !301, metadata !"", metadata !301, i32 0, i64 0, i64 0, i32 0, i32 0, i32 0, metadata !315, i32 0, i32 0} ; [ DW_TAG_subroutine_type ]
!315 = metadata !{metadata !316, metadata !306, metadata !317}
!316 = metadata !{i32 589846, metadata !2, metadata !"pointer", metadata !301, i32 56, i64 0, i64 0, i64 0, i32 0, metadata !193} ; [ DW_TAG_typedef ]
!317 = metadata !{i32 589846, metadata !2, metadata !"reference", metadata !301, i32 58, i64 0, i64 0, i64 0, i32 0, metadata !318} ; [ DW_TAG_typedef ]
!318 = metadata !{i32 589840, metadata !2, null, null, i32 0, i64 0, i64 0, i64 0, i32 0, metadata !164} ; [ DW_TAG_reference_type ]
!319 = metadata !{i32 589870, i32 0, metadata !299, metadata !"address", metadata !"address", metadata !"_ZNK9__gnu_cxx13new_allocatorIcE7addressERKc", metadata !301, i32 79, metadata !320, i1 false, i1 false, i32 0, i32 0, null, i32 256, i1 false, null} ; [ DW_TAG_subprogram ]
!320 = metadata !{i32 589845, metadata !301, metadata !"", metadata !301, i32 0, i64 0, i64 0, i32 0, i32 0, i32 0, metadata !321, i32 0, i32 0} ; [ DW_TAG_subroutine_type ]
!321 = metadata !{metadata !322, metadata !306, metadata !323}
!322 = metadata !{i32 589846, metadata !2, metadata !"const_pointer", metadata !301, i32 57, i64 0, i64 0, i64 0, i32 0, metadata !193} ; [ DW_TAG_typedef ]
!323 = metadata !{i32 589846, metadata !2, metadata !"const_reference", metadata !301, i32 59, i64 0, i64 0, i64 0, i32 0, metadata !318} ; [ DW_TAG_typedef ]
!324 = metadata !{i32 589870, i32 0, metadata !299, metadata !"allocate", metadata !"allocate", metadata !"_ZN9__gnu_cxx13new_allocatorIcE8allocateEmPKv", metadata !301, i32 84, metadata !325, i1 false, i1 false, i32 0, i32 0, null, i32 256, i1 false, null} ; [ DW_TAG_subprogram ]
!325 = metadata !{i32 589845, metadata !301, metadata !"", metadata !301, i32 0, i64 0, i64 0, i32 0, i32 0, i32 0, metadata !326, i32 0, i32 0} ; [ DW_TAG_subroutine_type ]
!326 = metadata !{metadata !316, metadata !306, metadata !327, metadata !328}
!327 = metadata !{i32 589846, metadata !2, metadata !"size_type", metadata !301, i32 54, i64 0, i64 0, i64 0, i32 0, metadata !131} ; [ DW_TAG_typedef ]
!328 = metadata !{i32 589839, metadata !2, metadata !"", null, i32 0, i64 64, i64 64, i64 0, i32 0, metadata !329} ; [ DW_TAG_pointer_type ]
!329 = metadata !{i32 589862, metadata !2, metadata !"", null, i32 0, i64 0, i64 0, i64 0, i32 0, null} ; [ DW_TAG_const_type ]
!330 = metadata !{i32 589870, i32 0, metadata !299, metadata !"deallocate", metadata !"deallocate", metadata !"_ZN9__gnu_cxx13new_allocatorIcE10deallocateEPcm", metadata !301, i32 94, metadata !331, i1 false, i1 false, i32 0, i32 0, null, i32 256, i1 false, null} ; [ DW_TAG_subprogram ]
!331 = metadata !{i32 589845, metadata !301, metadata !"", metadata !301, i32 0, i64 0, i64 0, i32 0, i32 0, i32 0, metadata !332, i32 0, i32 0} ; [ DW_TAG_subroutine_type ]
!332 = metadata !{null, metadata !306, metadata !316, metadata !327}
!333 = metadata !{i32 589870, i32 0, metadata !299, metadata !"max_size", metadata !"max_size", metadata !"_ZNK9__gnu_cxx13new_allocatorIcE8max_sizeEv", metadata !301, i32 98, metadata !334, i1 false, i1 false, i32 0, i32 0, null, i32 256, i1 false, null} ; [ DW_TAG_subprogram ]
!334 = metadata !{i32 589845, metadata !301, metadata !"", metadata !301, i32 0, i64 0, i64 0, i32 0, i32 0, i32 0, metadata !335, i32 0, i32 0} ; [ DW_TAG_subroutine_type ]
!335 = metadata !{metadata !327, metadata !306}
!336 = metadata !{i32 589870, i32 0, metadata !299, metadata !"construct", metadata !"construct", metadata !"_ZN9__gnu_cxx13new_allocatorIcE9constructEPcRKc", metadata !301, i32 104, metadata !337, i1 false, i1 false, i32 0, i32 0, null, i32 256, i1 false, null} ; [ DW_TAG_subprogram ]
!337 = metadata !{i32 589845, metadata !301, metadata !"", metadata !301, i32 0, i64 0, i64 0, i32 0, i32 0, i32 0, metadata !338, i32 0, i32 0} ; [ DW_TAG_subroutine_type ]
!338 = metadata !{null, metadata !306, metadata !316, metadata !318}
!339 = metadata !{i32 589870, i32 0, metadata !299, metadata !"destroy", metadata !"destroy", metadata !"_ZN9__gnu_cxx13new_allocatorIcE7destroyEPc", metadata !301, i32 115, metadata !340, i1 false, i1 false, i32 0, i32 0, null, i32 256, i1 false, null} ; [ DW_TAG_subprogram ]
!340 = metadata !{i32 589845, metadata !301, metadata !"", metadata !301, i32 0, i64 0, i64 0, i32 0, i32 0, i32 0, metadata !341, i32 0, i32 0} ; [ DW_TAG_subroutine_type ]
!341 = metadata !{null, metadata !306, metadata !316}
!342 = metadata !{metadata !343}
!343 = metadata !{i32 589871, metadata !2, metadata !"char", metadata !164, null, i32 0, i32 0} ; [ DW_TAG_template_type_parameter ]
!344 = metadata !{i32 589870, i32 0, metadata !295, metadata !"allocator", metadata !"allocator", metadata !"", metadata !296, i32 101, metadata !345, i1 false, i1 false, i32 0, i32 0, null, i32 256, i1 false, null} ; [ DW_TAG_subprogram ]
!345 = metadata !{i32 589845, metadata !296, metadata !"", metadata !296, i32 0, i64 0, i64 0, i32 0, i32 0, i32 0, metadata !346, i32 0, i32 0} ; [ DW_TAG_subroutine_type ]
!346 = metadata !{null, metadata !347}
!347 = metadata !{i32 589839, metadata !2, metadata !"", i32 0, i32 0, i64 64, i64 64, i64 0, i32 64, metadata !295} ; [ DW_TAG_pointer_type ]
!348 = metadata !{i32 589870, i32 0, metadata !295, metadata !"allocator", metadata !"allocator", metadata !"", metadata !296, i32 103, metadata !349, i1 false, i1 false, i32 0, i32 0, null, i32 256, i1 false, null} ; [ DW_TAG_subprogram ]
!349 = metadata !{i32 589845, metadata !296, metadata !"", metadata !296, i32 0, i64 0, i64 0, i32 0, i32 0, i32 0, metadata !350, i32 0, i32 0} ; [ DW_TAG_subroutine_type ]
!350 = metadata !{null, metadata !347, metadata !351}
!351 = metadata !{i32 589840, metadata !2, null, null, i32 0, i64 0, i64 0, i64 0, i32 0, metadata !352} ; [ DW_TAG_reference_type ]
!352 = metadata !{i32 589862, metadata !2, metadata !"", null, i32 0, i64 0, i64 0, i64 0, i32 0, metadata !295} ; [ DW_TAG_const_type ]
!353 = metadata !{i32 589870, i32 0, metadata !295, metadata !"~allocator", metadata !"~allocator", metadata !"", metadata !296, i32 109, metadata !345, i1 false, i1 false, i32 0, i32 0, null, i32 256, i1 false, null} ; [ DW_TAG_subprogram ]
!354 = metadata !{i32 589837, metadata !291, metadata !"_M_p", metadata !291, i32 261, i64 64, i64 64, i64 0, i32 0, metadata !193} ; [ DW_TAG_member ]
!355 = metadata !{i32 589870, i32 0, metadata !292, metadata !"_Alloc_hider", metadata !"_Alloc_hider", metadata !"", metadata !291, i32 258, metadata !356, i1 false, i1 false, i32 0, i32 0, null, i32 256, i1 false, null} ; [ DW_TAG_subprogram ]
!356 = metadata !{i32 589845, metadata !291, metadata !"", metadata !291, i32 0, i64 0, i64 0, i32 0, i32 0, i32 0, metadata !357, i32 0, i32 0} ; [ DW_TAG_subroutine_type ]
!357 = metadata !{null, metadata !358, metadata !193, metadata !359}
!358 = metadata !{i32 589839, metadata !2, metadata !"", i32 0, i32 0, i64 64, i64 64, i64 0, i32 64, metadata !292} ; [ DW_TAG_pointer_type ]
!359 = metadata !{i32 589840, metadata !2, null, null, i32 0, i64 0, i64 0, i64 0, i32 0, metadata !295} ; [ DW_TAG_reference_type ]
!360 = metadata !{i32 589870, i32 0, metadata !287, metadata !"_M_data", metadata !"_M_data", metadata !"_ZNKSs7_M_dataEv", metadata !291, i32 276, metadata !361, i1 false, i1 false, i32 0, i32 0, null, i32 257, i1 false, null} ; [ DW_TAG_subprogram ]
!361 = metadata !{i32 589845, metadata !288, metadata !"", metadata !288, i32 0, i64 0, i64 0, i32 0, i32 0, i32 0, metadata !362, i32 0, i32 0} ; [ DW_TAG_subroutine_type ]
!362 = metadata !{metadata !193, metadata !363}
!363 = metadata !{i32 589839, metadata !2, metadata !"", i32 0, i32 0, i64 64, i64 64, i64 0, i32 64, metadata !287} ; [ DW_TAG_pointer_type ]
!364 = metadata !{i32 589870, i32 0, metadata !287, metadata !"_M_data", metadata !"_M_data", metadata !"_ZNSs7_M_dataEPc", metadata !291, i32 280, metadata !365, i1 false, i1 false, i32 0, i32 0, null, i32 257, i1 false, null} ; [ DW_TAG_subprogram ]
!365 = metadata !{i32 589845, metadata !288, metadata !"", metadata !288, i32 0, i64 0, i64 0, i32 0, i32 0, i32 0, metadata !366, i32 0, i32 0} ; [ DW_TAG_subroutine_type ]
!366 = metadata !{metadata !193, metadata !363, metadata !193}
!367 = metadata !{i32 589870, i32 0, metadata !287, metadata !"_M_rep", metadata !"_M_rep", metadata !"_ZNKSs6_M_repEv", metadata !291, i32 284, metadata !368, i1 false, i1 false, i32 0, i32 0, null, i32 257, i1 false, null} ; [ DW_TAG_subprogram ]
!368 = metadata !{i32 589845, metadata !288, metadata !"", metadata !288, i32 0, i64 0, i64 0, i32 0, i32 0, i32 0, metadata !369, i32 0, i32 0} ; [ DW_TAG_subroutine_type ]
!369 = metadata !{metadata !370, metadata !363}
!370 = metadata !{i32 589839, metadata !2, metadata !"", null, i32 0, i64 64, i64 64, i64 0, i32 0, metadata !371} ; [ DW_TAG_pointer_type ]
!371 = metadata !{i32 589826, metadata !287, metadata !"_Rep", metadata !291, i32 146, i64 192, i64 64, i32 0, i32 0, null, metadata !372, i32 0, null, metadata !89} ; [ DW_TAG_class_type ]
!372 = metadata !{metadata !373, metadata !381, metadata !385, metadata !389, metadata !390, metadata !393, metadata !394, metadata !397, metadata !400, metadata !403, metadata !406, metadata !409, metadata !410, metadata !411}
!373 = metadata !{i32 589852, metadata !371, null, metadata !291, i32 0, i64 0, i64 0, i64 0, i32 0, metadata !374} ; [ DW_TAG_inheritance ]
!374 = metadata !{i32 589826, metadata !287, metadata !"_Rep_base", metadata !291, i32 139, i64 192, i64 64, i32 0, i32 0, null, metadata !375, i32 0, null, metadata !89} ; [ DW_TAG_class_type ]
!375 = metadata !{metadata !376, metadata !379, metadata !380}
!376 = metadata !{i32 589837, metadata !291, metadata !"_M_length", metadata !291, i32 141, i64 64, i64 64, i64 0, i32 0, metadata !377} ; [ DW_TAG_member ]
!377 = metadata !{i32 589846, metadata !2, metadata !"size_type", metadata !291, i32 112, i64 0, i64 0, i64 0, i32 0, metadata !378} ; [ DW_TAG_typedef ]
!378 = metadata !{i32 589846, metadata !2, metadata !"size_type", metadata !291, i32 89, i64 0, i64 0, i64 0, i32 0, metadata !131} ; [ DW_TAG_typedef ]
!379 = metadata !{i32 589837, metadata !291, metadata !"_M_capacity", metadata !291, i32 142, i64 64, i64 64, i64 64, i32 0, metadata !377} ; [ DW_TAG_member ]
!380 = metadata !{i32 589837, metadata !291, metadata !"_M_refcount", metadata !291, i32 143, i64 32, i64 32, i64 128, i32 0, metadata !78} ; [ DW_TAG_member ]
!381 = metadata !{i32 589870, i32 0, metadata !371, metadata !"_S_empty_rep", metadata !"_S_empty_rep", metadata !"_ZNSs4_Rep12_S_empty_repEv", metadata !291, i32 172, metadata !382, i1 false, i1 false, i32 0, i32 0, null, i32 256, i1 false, null} ; [ DW_TAG_subprogram ]
!382 = metadata !{i32 589845, metadata !291, metadata !"", metadata !291, i32 0, i64 0, i64 0, i32 0, i32 0, i32 0, metadata !383, i32 0, i32 0} ; [ DW_TAG_subroutine_type ]
!383 = metadata !{metadata !384}
!384 = metadata !{i32 589840, metadata !2, null, null, i32 0, i64 0, i64 0, i64 0, i32 0, metadata !371} ; [ DW_TAG_reference_type ]
!385 = metadata !{i32 589870, i32 0, metadata !371, metadata !"_M_is_leaked", metadata !"_M_is_leaked", metadata !"_ZNKSs4_Rep12_M_is_leakedEv", metadata !291, i32 182, metadata !386, i1 false, i1 false, i32 0, i32 0, null, i32 256, i1 false, null} ; [ DW_TAG_subprogram ]
!386 = metadata !{i32 589845, metadata !291, metadata !"", metadata !291, i32 0, i64 0, i64 0, i32 0, i32 0, i32 0, metadata !387, i32 0, i32 0} ; [ DW_TAG_subroutine_type ]
!387 = metadata !{metadata !218, metadata !388}
!388 = metadata !{i32 589839, metadata !2, metadata !"", i32 0, i32 0, i64 64, i64 64, i64 0, i32 64, metadata !371} ; [ DW_TAG_pointer_type ]
!389 = metadata !{i32 589870, i32 0, metadata !371, metadata !"_M_is_shared", metadata !"_M_is_shared", metadata !"_ZNKSs4_Rep12_M_is_sharedEv", metadata !291, i32 186, metadata !386, i1 false, i1 false, i32 0, i32 0, null, i32 256, i1 false, null} ; [ DW_TAG_subprogram ]
!390 = metadata !{i32 589870, i32 0, metadata !371, metadata !"_M_set_leaked", metadata !"_M_set_leaked", metadata !"_ZNSs4_Rep13_M_set_leakedEv", metadata !291, i32 190, metadata !391, i1 false, i1 false, i32 0, i32 0, null, i32 256, i1 false, null} ; [ DW_TAG_subprogram ]
!391 = metadata !{i32 589845, metadata !291, metadata !"", metadata !291, i32 0, i64 0, i64 0, i32 0, i32 0, i32 0, metadata !392, i32 0, i32 0} ; [ DW_TAG_subroutine_type ]
!392 = metadata !{null, metadata !388}
!393 = metadata !{i32 589870, i32 0, metadata !371, metadata !"_M_set_sharable", metadata !"_M_set_sharable", metadata !"_ZNSs4_Rep15_M_set_sharableEv", metadata !291, i32 194, metadata !391, i1 false, i1 false, i32 0, i32 0, null, i32 256, i1 false, null} ; [ DW_TAG_subprogram ]
!394 = metadata !{i32 589870, i32 0, metadata !371, metadata !"_M_set_length_and_sharable", metadata !"_M_set_length_and_sharable", metadata !"_ZNSs4_Rep26_M_set_length_and_sharableEm", metadata !291, i32 198, metadata !395, i1 false, i1 false, i32 0, i32 0, null, i32 256, i1 false, null} ; [ DW_TAG_subprogram ]
!395 = metadata !{i32 589845, metadata !291, metadata !"", metadata !291, i32 0, i64 0, i64 0, i32 0, i32 0, i32 0, metadata !396, i32 0, i32 0} ; [ DW_TAG_subroutine_type ]
!396 = metadata !{null, metadata !388, metadata !377}
!397 = metadata !{i32 589870, i32 0, metadata !371, metadata !"_M_refdata", metadata !"_M_refdata", metadata !"_ZNSs4_Rep10_M_refdataEv", metadata !291, i32 213, metadata !398, i1 false, i1 false, i32 0, i32 0, null, i32 256, i1 false, null} ; [ DW_TAG_subprogram ]
!398 = metadata !{i32 589845, metadata !291, metadata !"", metadata !291, i32 0, i64 0, i64 0, i32 0, i32 0, i32 0, metadata !399, i32 0, i32 0} ; [ DW_TAG_subroutine_type ]
!399 = metadata !{metadata !193, metadata !388}
!400 = metadata !{i32 589870, i32 0, metadata !371, metadata !"_M_grab", metadata !"_M_grab", metadata !"_ZNSs4_Rep7_M_grabERKSaIcES2_", metadata !291, i32 217, metadata !401, i1 false, i1 false, i32 0, i32 0, null, i32 256, i1 false, null} ; [ DW_TAG_subprogram ]
!401 = metadata !{i32 589845, metadata !291, metadata !"", metadata !291, i32 0, i64 0, i64 0, i32 0, i32 0, i32 0, metadata !402, i32 0, i32 0} ; [ DW_TAG_subroutine_type ]
!402 = metadata !{metadata !193, metadata !388, metadata !359, metadata !359}
!403 = metadata !{i32 589870, i32 0, metadata !371, metadata !"_S_create", metadata !"_S_create", metadata !"_ZNSs4_Rep9_S_createEmmRKSaIcE", metadata !291, i32 225, metadata !404, i1 false, i1 false, i32 0, i32 0, null, i32 256, i1 false, null} ; [ DW_TAG_subprogram ]
!404 = metadata !{i32 589845, metadata !291, metadata !"", metadata !291, i32 0, i64 0, i64 0, i32 0, i32 0, i32 0, metadata !405, i32 0, i32 0} ; [ DW_TAG_subroutine_type ]
!405 = metadata !{metadata !388, metadata !377, metadata !377, metadata !359}
!406 = metadata !{i32 589870, i32 0, metadata !371, metadata !"_M_dispose", metadata !"_M_dispose", metadata !"_ZNSs4_Rep10_M_disposeERKSaIcE", metadata !291, i32 228, metadata !407, i1 false, i1 false, i32 0, i32 0, null, i32 256, i1 false, null} ; [ DW_TAG_subprogram ]
!407 = metadata !{i32 589845, metadata !291, metadata !"", metadata !291, i32 0, i64 0, i64 0, i32 0, i32 0, i32 0, metadata !408, i32 0, i32 0} ; [ DW_TAG_subroutine_type ]
!408 = metadata !{null, metadata !388, metadata !359}
!409 = metadata !{i32 589870, i32 0, metadata !371, metadata !"_M_destroy", metadata !"_M_destroy", metadata !"_ZNSs4_Rep10_M_destroyERKSaIcE", metadata !291, i32 239, metadata !407, i1 false, i1 false, i32 0, i32 0, null, i32 256, i1 false, null} ; [ DW_TAG_subprogram ]
!410 = metadata !{i32 589870, i32 0, metadata !371, metadata !"_M_refcopy", metadata !"_M_refcopy", metadata !"_ZNSs4_Rep10_M_refcopyEv", metadata !291, i32 242, metadata !398, i1 false, i1 false, i32 0, i32 0, null, i32 256, i1 false, null} ; [ DW_TAG_subprogram ]
!411 = metadata !{i32 589870, i32 0, metadata !371, metadata !"_M_clone", metadata !"_M_clone", metadata !"_ZNSs4_Rep8_M_cloneERKSaIcEm", metadata !291, i32 252, metadata !412, i1 false, i1 false, i32 0, i32 0, null, i32 256, i1 false, null} ; [ DW_TAG_subprogram ]
!412 = metadata !{i32 589845, metadata !291, metadata !"", metadata !291, i32 0, i64 0, i64 0, i32 0, i32 0, i32 0, metadata !413, i32 0, i32 0} ; [ DW_TAG_subroutine_type ]
!413 = metadata !{metadata !193, metadata !388, metadata !359, metadata !377}
!414 = metadata !{i32 589870, i32 0, metadata !287, metadata !"_M_ibegin", metadata !"_M_ibegin", metadata !"_ZNKSs9_M_ibeginEv", metadata !291, i32 290, metadata !415, i1 false, i1 false, i32 0, i32 0, null, i32 257, i1 false, null} ; [ DW_TAG_subprogram ]
!415 = metadata !{i32 589845, metadata !288, metadata !"", metadata !288, i32 0, i64 0, i64 0, i32 0, i32 0, i32 0, metadata !416, i32 0, i32 0} ; [ DW_TAG_subroutine_type ]
!416 = metadata !{metadata !417, metadata !363}
!417 = metadata !{i32 589846, metadata !418, metadata !"iterator", metadata !288, i32 118, i64 0, i64 0, i64 0, i32 0, metadata !420} ; [ DW_TAG_typedef ]
!418 = metadata !{i32 589881, metadata !2, metadata !"__gnu_cxx", metadata !419, i32 656} ; [ DW_TAG_namespace ]
!419 = metadata !{i32 589865, metadata !"/usr/include/c++/4.4/bits/stl_iterator.h", metadata !"/home/brian/llvm/tools/clang-2.9", metadata !2} ; [ DW_TAG_file_type ]
!420 = metadata !{i32 589843, metadata !418, metadata !"__normal_iterator", metadata !419, i32 668, i64 0, i64 0, i32 0, i32 4, i32 0, null, i32 0, i32 0} ; [ DW_TAG_structure_type ]
!421 = metadata !{i32 589870, i32 0, metadata !287, metadata !"_M_iend", metadata !"_M_iend", metadata !"_ZNKSs7_M_iendEv", metadata !291, i32 294, metadata !415, i1 false, i1 false, i32 0, i32 0, null, i32 257, i1 false, null} ; [ DW_TAG_subprogram ]
!422 = metadata !{i32 589870, i32 0, metadata !287, metadata !"_M_leak", metadata !"_M_leak", metadata !"_ZNSs7_M_leakEv", metadata !291, i32 298, metadata !423, i1 false, i1 false, i32 0, i32 0, null, i32 257, i1 false, null} ; [ DW_TAG_subprogram ]
!423 = metadata !{i32 589845, metadata !288, metadata !"", metadata !288, i32 0, i64 0, i64 0, i32 0, i32 0, i32 0, metadata !424, i32 0, i32 0} ; [ DW_TAG_subroutine_type ]
!424 = metadata !{null, metadata !363}
!425 = metadata !{i32 589870, i32 0, metadata !287, metadata !"_M_check", metadata !"_M_check", metadata !"_ZNKSs8_M_checkEmPKc", metadata !291, i32 305, metadata !426, i1 false, i1 false, i32 0, i32 0, null, i32 257, i1 false, null} ; [ DW_TAG_subprogram ]
!426 = metadata !{i32 589845, metadata !288, metadata !"", metadata !288, i32 0, i64 0, i64 0, i32 0, i32 0, i32 0, metadata !427, i32 0, i32 0} ; [ DW_TAG_subroutine_type ]
!427 = metadata !{metadata !377, metadata !363, metadata !377, metadata !162}
!428 = metadata !{i32 589870, i32 0, metadata !287, metadata !"_M_check_length", metadata !"_M_check_length", metadata !"_ZNKSs15_M_check_lengthEmmPKc", metadata !291, i32 313, metadata !429, i1 false, i1 false, i32 0, i32 0, null, i32 257, i1 false, null} ; [ DW_TAG_subprogram ]
!429 = metadata !{i32 589845, metadata !288, metadata !"", metadata !288, i32 0, i64 0, i64 0, i32 0, i32 0, i32 0, metadata !430, i32 0, i32 0} ; [ DW_TAG_subroutine_type ]
!430 = metadata !{null, metadata !363, metadata !377, metadata !377, metadata !162}
!431 = metadata !{i32 589870, i32 0, metadata !287, metadata !"_M_limit", metadata !"_M_limit", metadata !"_ZNKSs8_M_limitEmm", metadata !291, i32 321, metadata !432, i1 false, i1 false, i32 0, i32 0, null, i32 257, i1 false, null} ; [ DW_TAG_subprogram ]
!432 = metadata !{i32 589845, metadata !288, metadata !"", metadata !288, i32 0, i64 0, i64 0, i32 0, i32 0, i32 0, metadata !433, i32 0, i32 0} ; [ DW_TAG_subroutine_type ]
!433 = metadata !{metadata !377, metadata !363, metadata !377, metadata !377}
!434 = metadata !{i32 589870, i32 0, metadata !287, metadata !"_M_disjunct", metadata !"_M_disjunct", metadata !"_ZNKSs11_M_disjunctEPKc", metadata !291, i32 329, metadata !435, i1 false, i1 false, i32 0, i32 0, null, i32 257, i1 false, null} ; [ DW_TAG_subprogram ]
!435 = metadata !{i32 589845, metadata !288, metadata !"", metadata !288, i32 0, i64 0, i64 0, i32 0, i32 0, i32 0, metadata !436, i32 0, i32 0} ; [ DW_TAG_subroutine_type ]
!436 = metadata !{metadata !218, metadata !363, metadata !193}
!437 = metadata !{i32 589870, i32 0, metadata !287, metadata !"_M_copy", metadata !"_M_copy", metadata !"_ZNSs7_M_copyEPcPKcm", metadata !291, i32 338, metadata !438, i1 false, i1 false, i32 0, i32 0, null, i32 257, i1 false, null} ; [ DW_TAG_subprogram ]
!438 = metadata !{i32 589845, metadata !288, metadata !"", metadata !288, i32 0, i64 0, i64 0, i32 0, i32 0, i32 0, metadata !439, i32 0, i32 0} ; [ DW_TAG_subroutine_type ]
!439 = metadata !{null, metadata !193, metadata !193, metadata !377}
!440 = metadata !{i32 589870, i32 0, metadata !287, metadata !"_M_move", metadata !"_M_move", metadata !"_ZNSs7_M_moveEPcPKcm", metadata !291, i32 347, metadata !438, i1 false, i1 false, i32 0, i32 0, null, i32 257, i1 false, null} ; [ DW_TAG_subprogram ]
!441 = metadata !{i32 589870, i32 0, metadata !287, metadata !"_M_assign", metadata !"_M_assign", metadata !"_ZNSs9_M_assignEPcmc", metadata !291, i32 356, metadata !442, i1 false, i1 false, i32 0, i32 0, null, i32 257, i1 false, null} ; [ DW_TAG_subprogram ]
!442 = metadata !{i32 589845, metadata !288, metadata !"", metadata !288, i32 0, i64 0, i64 0, i32 0, i32 0, i32 0, metadata !443, i32 0, i32 0} ; [ DW_TAG_subroutine_type ]
!443 = metadata !{null, metadata !193, metadata !377, metadata !164}
!444 = metadata !{i32 589870, i32 0, metadata !287, metadata !"_S_copy_chars", metadata !"_S_copy_chars", metadata !"_ZNSs13_S_copy_charsEPcN9__gnu_cxx17__normal_iteratorIS_SsEES2_", metadata !291, i32 375, metadata !445, i1 false, i1 false, i32 0, i32 0, null, i32 257, i1 false, null} ; [ DW_TAG_subprogram ]
!445 = metadata !{i32 589845, metadata !288, metadata !"", metadata !288, i32 0, i64 0, i64 0, i32 0, i32 0, i32 0, metadata !446, i32 0, i32 0} ; [ DW_TAG_subroutine_type ]
!446 = metadata !{null, metadata !193, metadata !417, metadata !417}
!447 = metadata !{i32 589870, i32 0, metadata !287, metadata !"_S_copy_chars", metadata !"_S_copy_chars", metadata !"_ZNSs13_S_copy_charsEPcN9__gnu_cxx17__normal_iteratorIPKcSsEES4_", metadata !291, i32 379, metadata !448, i1 false, i1 false, i32 0, i32 0, null, i32 257, i1 false, null} ; [ DW_TAG_subprogram ]
!448 = metadata !{i32 589845, metadata !288, metadata !"", metadata !288, i32 0, i64 0, i64 0, i32 0, i32 0, i32 0, metadata !449, i32 0, i32 0} ; [ DW_TAG_subroutine_type ]
!449 = metadata !{null, metadata !193, metadata !450, metadata !450}
!450 = metadata !{i32 589846, metadata !418, metadata !"const_iterator", metadata !288, i32 120, i64 0, i64 0, i64 0, i32 0, metadata !420} ; [ DW_TAG_typedef ]
!451 = metadata !{i32 589870, i32 0, metadata !287, metadata !"_S_copy_chars", metadata !"_S_copy_chars", metadata !"_ZNSs13_S_copy_charsEPcS_S_", metadata !291, i32 383, metadata !452, i1 false, i1 false, i32 0, i32 0, null, i32 257, i1 false, null} ; [ DW_TAG_subprogram ]
!452 = metadata !{i32 589845, metadata !288, metadata !"", metadata !288, i32 0, i64 0, i64 0, i32 0, i32 0, i32 0, metadata !453, i32 0, i32 0} ; [ DW_TAG_subroutine_type ]
!453 = metadata !{null, metadata !193, metadata !193, metadata !193}
!454 = metadata !{i32 589870, i32 0, metadata !287, metadata !"_S_copy_chars", metadata !"_S_copy_chars", metadata !"_ZNSs13_S_copy_charsEPcPKcS1_", metadata !291, i32 387, metadata !452, i1 false, i1 false, i32 0, i32 0, null, i32 257, i1 false, null} ; [ DW_TAG_subprogram ]
!455 = metadata !{i32 589870, i32 0, metadata !287, metadata !"_S_compare", metadata !"_S_compare", metadata !"_ZNSs10_S_compareEmm", metadata !291, i32 391, metadata !456, i1 false, i1 false, i32 0, i32 0, null, i32 257, i1 false, null} ; [ DW_TAG_subprogram ]
!456 = metadata !{i32 589845, metadata !288, metadata !"", metadata !288, i32 0, i64 0, i64 0, i32 0, i32 0, i32 0, metadata !457, i32 0, i32 0} ; [ DW_TAG_subroutine_type ]
!457 = metadata !{metadata !54, metadata !377, metadata !377}
!458 = metadata !{i32 589870, i32 0, metadata !287, metadata !"_M_mutate", metadata !"_M_mutate", metadata !"_ZNSs9_M_mutateEmmm", metadata !291, i32 404, metadata !459, i1 false, i1 false, i32 0, i32 0, null, i32 257, i1 false, null} ; [ DW_TAG_subprogram ]
!459 = metadata !{i32 589845, metadata !288, metadata !"", metadata !288, i32 0, i64 0, i64 0, i32 0, i32 0, i32 0, metadata !460, i32 0, i32 0} ; [ DW_TAG_subroutine_type ]
!460 = metadata !{null, metadata !363, metadata !377, metadata !377, metadata !377}
!461 = metadata !{i32 589870, i32 0, metadata !287, metadata !"_M_leak_hard", metadata !"_M_leak_hard", metadata !"_ZNSs12_M_leak_hardEv", metadata !291, i32 407, metadata !423, i1 false, i1 false, i32 0, i32 0, null, i32 257, i1 false, null} ; [ DW_TAG_subprogram ]
!462 = metadata !{i32 589870, i32 0, metadata !287, metadata !"_S_empty_rep", metadata !"_S_empty_rep", metadata !"_ZNSs12_S_empty_repEv", metadata !291, i32 410, metadata !463, i1 false, i1 false, i32 0, i32 0, null, i32 257, i1 false, null} ; [ DW_TAG_subprogram ]
!463 = metadata !{i32 589845, metadata !288, metadata !"", metadata !288, i32 0, i64 0, i64 0, i32 0, i32 0, i32 0, metadata !383, i32 0, i32 0} ; [ DW_TAG_subroutine_type ]
!464 = metadata !{i32 589870, i32 0, metadata !287, metadata !"basic_string", metadata !"basic_string", metadata !"", metadata !291, i32 422, metadata !423, i1 false, i1 false, i32 0, i32 0, null, i32 256, i1 false, null} ; [ DW_TAG_subprogram ]
!465 = metadata !{i32 589870, i32 0, metadata !287, metadata !"basic_string", metadata !"basic_string", metadata !"", metadata !291, i32 428, metadata !466, i1 false, i1 false, i32 0, i32 0, null, i32 384, i1 false, null} ; [ DW_TAG_subprogram ]
!466 = metadata !{i32 589845, metadata !288, metadata !"", metadata !288, i32 0, i64 0, i64 0, i32 0, i32 0, i32 0, metadata !467, i32 0, i32 0} ; [ DW_TAG_subroutine_type ]
!467 = metadata !{null, metadata !363, metadata !359}
!468 = metadata !{i32 589870, i32 0, metadata !287, metadata !"basic_string", metadata !"basic_string", metadata !"", metadata !291, i32 435, metadata !469, i1 false, i1 false, i32 0, i32 0, null, i32 256, i1 false, null} ; [ DW_TAG_subprogram ]
!469 = metadata !{i32 589845, metadata !288, metadata !"", metadata !288, i32 0, i64 0, i64 0, i32 0, i32 0, i32 0, metadata !470, i32 0, i32 0} ; [ DW_TAG_subroutine_type ]
!470 = metadata !{null, metadata !363, metadata !471}
!471 = metadata !{i32 589840, metadata !2, null, null, i32 0, i64 0, i64 0, i64 0, i32 0, metadata !472} ; [ DW_TAG_reference_type ]
!472 = metadata !{i32 589862, metadata !2, metadata !"", null, i32 0, i64 0, i64 0, i64 0, i32 0, metadata !287} ; [ DW_TAG_const_type ]
!473 = metadata !{i32 589870, i32 0, metadata !287, metadata !"basic_string", metadata !"basic_string", metadata !"", metadata !291, i32 442, metadata !474, i1 false, i1 false, i32 0, i32 0, null, i32 256, i1 false, null} ; [ DW_TAG_subprogram ]
!474 = metadata !{i32 589845, metadata !288, metadata !"", metadata !288, i32 0, i64 0, i64 0, i32 0, i32 0, i32 0, metadata !475, i32 0, i32 0} ; [ DW_TAG_subroutine_type ]
!475 = metadata !{null, metadata !363, metadata !471, metadata !377, metadata !377}
!476 = metadata !{i32 589870, i32 0, metadata !287, metadata !"basic_string", metadata !"basic_string", metadata !"", metadata !291, i32 451, metadata !477, i1 false, i1 false, i32 0, i32 0, null, i32 256, i1 false, null} ; [ DW_TAG_subprogram ]
!477 = metadata !{i32 589845, metadata !288, metadata !"", metadata !288, i32 0, i64 0, i64 0, i32 0, i32 0, i32 0, metadata !478, i32 0, i32 0} ; [ DW_TAG_subroutine_type ]
!478 = metadata !{null, metadata !363, metadata !471, metadata !377, metadata !377, metadata !359}
!479 = metadata !{i32 589870, i32 0, metadata !287, metadata !"basic_string", metadata !"basic_string", metadata !"", metadata !291, i32 463, metadata !480, i1 false, i1 false, i32 0, i32 0, null, i32 256, i1 false, null} ; [ DW_TAG_subprogram ]
!480 = metadata !{i32 589845, metadata !288, metadata !"", metadata !288, i32 0, i64 0, i64 0, i32 0, i32 0, i32 0, metadata !481, i32 0, i32 0} ; [ DW_TAG_subroutine_type ]
!481 = metadata !{null, metadata !363, metadata !193, metadata !377, metadata !359}
!482 = metadata !{i32 589870, i32 0, metadata !287, metadata !"basic_string", metadata !"basic_string", metadata !"", metadata !291, i32 470, metadata !483, i1 false, i1 false, i32 0, i32 0, null, i32 256, i1 false, null} ; [ DW_TAG_subprogram ]
!483 = metadata !{i32 589845, metadata !288, metadata !"", metadata !288, i32 0, i64 0, i64 0, i32 0, i32 0, i32 0, metadata !484, i32 0, i32 0} ; [ DW_TAG_subroutine_type ]
!484 = metadata !{null, metadata !363, metadata !193, metadata !359}
!485 = metadata !{i32 589870, i32 0, metadata !287, metadata !"basic_string", metadata !"basic_string", metadata !"", metadata !291, i32 477, metadata !486, i1 false, i1 false, i32 0, i32 0, null, i32 256, i1 false, null} ; [ DW_TAG_subprogram ]
!486 = metadata !{i32 589845, metadata !288, metadata !"", metadata !288, i32 0, i64 0, i64 0, i32 0, i32 0, i32 0, metadata !487, i32 0, i32 0} ; [ DW_TAG_subroutine_type ]
!487 = metadata !{null, metadata !363, metadata !377, metadata !164, metadata !359}
!488 = metadata !{i32 589870, i32 0, metadata !287, metadata !"~basic_string", metadata !"~basic_string", metadata !"", metadata !291, i32 501, metadata !423, i1 false, i1 false, i32 0, i32 0, null, i32 256, i1 false, null} ; [ DW_TAG_subprogram ]
!489 = metadata !{i32 589870, i32 0, metadata !287, metadata !"operator=", metadata !"operator=", metadata !"_ZNSsaSERKSs", metadata !291, i32 509, metadata !490, i1 false, i1 false, i32 0, i32 0, null, i32 256, i1 false, null} ; [ DW_TAG_subprogram ]
!490 = metadata !{i32 589845, metadata !288, metadata !"", metadata !288, i32 0, i64 0, i64 0, i32 0, i32 0, i32 0, metadata !491, i32 0, i32 0} ; [ DW_TAG_subroutine_type ]
!491 = metadata !{metadata !492, metadata !363, metadata !471}
!492 = metadata !{i32 589840, metadata !2, null, null, i32 0, i64 0, i64 0, i64 0, i32 0, metadata !287} ; [ DW_TAG_reference_type ]
!493 = metadata !{i32 589870, i32 0, metadata !287, metadata !"operator=", metadata !"operator=", metadata !"_ZNSsaSEPKc", metadata !291, i32 517, metadata !494, i1 false, i1 false, i32 0, i32 0, null, i32 256, i1 false, null} ; [ DW_TAG_subprogram ]
!494 = metadata !{i32 589845, metadata !288, metadata !"", metadata !288, i32 0, i64 0, i64 0, i32 0, i32 0, i32 0, metadata !495, i32 0, i32 0} ; [ DW_TAG_subroutine_type ]
!495 = metadata !{metadata !492, metadata !363, metadata !193}
!496 = metadata !{i32 589870, i32 0, metadata !287, metadata !"operator=", metadata !"operator=", metadata !"_ZNSsaSEc", metadata !291, i32 528, metadata !497, i1 false, i1 false, i32 0, i32 0, null, i32 256, i1 false, null} ; [ DW_TAG_subprogram ]
!497 = metadata !{i32 589845, metadata !288, metadata !"", metadata !288, i32 0, i64 0, i64 0, i32 0, i32 0, i32 0, metadata !498, i32 0, i32 0} ; [ DW_TAG_subroutine_type ]
!498 = metadata !{metadata !492, metadata !363, metadata !164}
!499 = metadata !{i32 589870, i32 0, metadata !287, metadata !"begin", metadata !"begin", metadata !"_ZNSs5beginEv", metadata !291, i32 553, metadata !415, i1 false, i1 false, i32 0, i32 0, null, i32 256, i1 false, null} ; [ DW_TAG_subprogram ]
!500 = metadata !{i32 589870, i32 0, metadata !287, metadata !"begin", metadata !"begin", metadata !"_ZNKSs5beginEv", metadata !291, i32 564, metadata !501, i1 false, i1 false, i32 0, i32 0, null, i32 256, i1 false, null} ; [ DW_TAG_subprogram ]
!501 = metadata !{i32 589845, metadata !288, metadata !"", metadata !288, i32 0, i64 0, i64 0, i32 0, i32 0, i32 0, metadata !502, i32 0, i32 0} ; [ DW_TAG_subroutine_type ]
!502 = metadata !{metadata !450, metadata !363}
!503 = metadata !{i32 589870, i32 0, metadata !287, metadata !"end", metadata !"end", metadata !"_ZNSs3endEv", metadata !291, i32 572, metadata !415, i1 false, i1 false, i32 0, i32 0, null, i32 256, i1 false, null} ; [ DW_TAG_subprogram ]
!504 = metadata !{i32 589870, i32 0, metadata !287, metadata !"end", metadata !"end", metadata !"_ZNKSs3endEv", metadata !291, i32 583, metadata !501, i1 false, i1 false, i32 0, i32 0, null, i32 256, i1 false, null} ; [ DW_TAG_subprogram ]
!505 = metadata !{i32 589870, i32 0, metadata !287, metadata !"rbegin", metadata !"rbegin", metadata !"_ZNSs6rbeginEv", metadata !291, i32 592, metadata !506, i1 false, i1 false, i32 0, i32 0, null, i32 256, i1 false, null} ; [ DW_TAG_subprogram ]
!506 = metadata !{i32 589845, metadata !288, metadata !"", metadata !288, i32 0, i64 0, i64 0, i32 0, i32 0, i32 0, metadata !507, i32 0, i32 0} ; [ DW_TAG_subroutine_type ]
!507 = metadata !{metadata !508, metadata !363}
!508 = metadata !{i32 589846, metadata !509, metadata !"reverse_iterator", metadata !288, i32 122, i64 0, i64 0, i64 0, i32 0, metadata !510} ; [ DW_TAG_typedef ]
!509 = metadata !{i32 589881, metadata !2, metadata !"std", metadata !419, i32 68} ; [ DW_TAG_namespace ]
!510 = metadata !{i32 589843, metadata !509, metadata !"reverse_iterator", metadata !419, i32 90, i64 0, i64 0, i32 0, i32 4, i32 0, null, i32 0, i32 0} ; [ DW_TAG_structure_type ]
!511 = metadata !{i32 589870, i32 0, metadata !287, metadata !"rbegin", metadata !"rbegin", metadata !"_ZNKSs6rbeginEv", metadata !291, i32 601, metadata !512, i1 false, i1 false, i32 0, i32 0, null, i32 256, i1 false, null} ; [ DW_TAG_subprogram ]
!512 = metadata !{i32 589845, metadata !288, metadata !"", metadata !288, i32 0, i64 0, i64 0, i32 0, i32 0, i32 0, metadata !513, i32 0, i32 0} ; [ DW_TAG_subroutine_type ]
!513 = metadata !{metadata !514, metadata !363}
!514 = metadata !{i32 589846, metadata !509, metadata !"const_reverse_iterator", metadata !288, i32 121, i64 0, i64 0, i64 0, i32 0, metadata !510} ; [ DW_TAG_typedef ]
!515 = metadata !{i32 589870, i32 0, metadata !287, metadata !"rend", metadata !"rend", metadata !"_ZNSs4rendEv", metadata !291, i32 610, metadata !506, i1 false, i1 false, i32 0, i32 0, null, i32 256, i1 false, null} ; [ DW_TAG_subprogram ]
!516 = metadata !{i32 589870, i32 0, metadata !287, metadata !"rend", metadata !"rend", metadata !"_ZNKSs4rendEv", metadata !291, i32 619, metadata !512, i1 false, i1 false, i32 0, i32 0, null, i32 256, i1 false, null} ; [ DW_TAG_subprogram ]
!517 = metadata !{i32 589870, i32 0, metadata !287, metadata !"size", metadata !"size", metadata !"_ZNKSs4sizeEv", metadata !291, i32 627, metadata !518, i1 false, i1 false, i32 0, i32 0, null, i32 256, i1 false, null} ; [ DW_TAG_subprogram ]
!518 = metadata !{i32 589845, metadata !288, metadata !"", metadata !288, i32 0, i64 0, i64 0, i32 0, i32 0, i32 0, metadata !519, i32 0, i32 0} ; [ DW_TAG_subroutine_type ]
!519 = metadata !{metadata !377, metadata !363}
!520 = metadata !{i32 589870, i32 0, metadata !287, metadata !"length", metadata !"length", metadata !"_ZNKSs6lengthEv", metadata !291, i32 633, metadata !518, i1 false, i1 false, i32 0, i32 0, null, i32 256, i1 false, null} ; [ DW_TAG_subprogram ]
!521 = metadata !{i32 589870, i32 0, metadata !287, metadata !"max_size", metadata !"max_size", metadata !"_ZNKSs8max_sizeEv", metadata !291, i32 638, metadata !518, i1 false, i1 false, i32 0, i32 0, null, i32 256, i1 false, null} ; [ DW_TAG_subprogram ]
!522 = metadata !{i32 589870, i32 0, metadata !287, metadata !"resize", metadata !"resize", metadata !"_ZNSs6resizeEmc", metadata !291, i32 652, metadata !523, i1 false, i1 false, i32 0, i32 0, null, i32 256, i1 false, null} ; [ DW_TAG_subprogram ]
!523 = metadata !{i32 589845, metadata !288, metadata !"", metadata !288, i32 0, i64 0, i64 0, i32 0, i32 0, i32 0, metadata !524, i32 0, i32 0} ; [ DW_TAG_subroutine_type ]
!524 = metadata !{null, metadata !363, metadata !377, metadata !164}
!525 = metadata !{i32 589870, i32 0, metadata !287, metadata !"resize", metadata !"resize", metadata !"_ZNSs6resizeEm", metadata !291, i32 665, metadata !526, i1 false, i1 false, i32 0, i32 0, null, i32 256, i1 false, null} ; [ DW_TAG_subprogram ]
!526 = metadata !{i32 589845, metadata !288, metadata !"", metadata !288, i32 0, i64 0, i64 0, i32 0, i32 0, i32 0, metadata !527, i32 0, i32 0} ; [ DW_TAG_subroutine_type ]
!527 = metadata !{null, metadata !363, metadata !377}
!528 = metadata !{i32 589870, i32 0, metadata !287, metadata !"capacity", metadata !"capacity", metadata !"_ZNKSs8capacityEv", metadata !291, i32 673, metadata !518, i1 false, i1 false, i32 0, i32 0, null, i32 256, i1 false, null} ; [ DW_TAG_subprogram ]
!529 = metadata !{i32 589870, i32 0, metadata !287, metadata !"reserve", metadata !"reserve", metadata !"_ZNSs7reserveEm", metadata !291, i32 694, metadata !526, i1 false, i1 false, i32 0, i32 0, null, i32 256, i1 false, null} ; [ DW_TAG_subprogram ]
!530 = metadata !{i32 589870, i32 0, metadata !287, metadata !"clear", metadata !"clear", metadata !"_ZNSs5clearEv", metadata !291, i32 700, metadata !423, i1 false, i1 false, i32 0, i32 0, null, i32 256, i1 false, null} ; [ DW_TAG_subprogram ]
!531 = metadata !{i32 589870, i32 0, metadata !287, metadata !"empty", metadata !"empty", metadata !"_ZNKSs5emptyEv", metadata !291, i32 707, metadata !532, i1 false, i1 false, i32 0, i32 0, null, i32 256, i1 false, null} ; [ DW_TAG_subprogram ]
!532 = metadata !{i32 589845, metadata !288, metadata !"", metadata !288, i32 0, i64 0, i64 0, i32 0, i32 0, i32 0, metadata !533, i32 0, i32 0} ; [ DW_TAG_subroutine_type ]
!533 = metadata !{metadata !218, metadata !363}
!534 = metadata !{i32 589870, i32 0, metadata !287, metadata !"operator[]", metadata !"operator[]", metadata !"_ZNKSsixEm", metadata !291, i32 722, metadata !535, i1 false, i1 false, i32 0, i32 0, null, i32 256, i1 false, null} ; [ DW_TAG_subprogram ]
!535 = metadata !{i32 589845, metadata !288, metadata !"", metadata !288, i32 0, i64 0, i64 0, i32 0, i32 0, i32 0, metadata !536, i32 0, i32 0} ; [ DW_TAG_subroutine_type ]
!536 = metadata !{metadata !537, metadata !363, metadata !377}
!537 = metadata !{i32 589846, metadata !2, metadata !"const_reference", metadata !288, i32 115, i64 0, i64 0, i64 0, i32 0, metadata !538} ; [ DW_TAG_typedef ]
!538 = metadata !{i32 589846, metadata !2, metadata !"const_reference", metadata !288, i32 94, i64 0, i64 0, i64 0, i32 0, metadata !318} ; [ DW_TAG_typedef ]
!539 = metadata !{i32 589870, i32 0, metadata !287, metadata !"operator[]", metadata !"operator[]", metadata !"_ZNSsixEm", metadata !291, i32 739, metadata !540, i1 false, i1 false, i32 0, i32 0, null, i32 256, i1 false, null} ; [ DW_TAG_subprogram ]
!540 = metadata !{i32 589845, metadata !288, metadata !"", metadata !288, i32 0, i64 0, i64 0, i32 0, i32 0, i32 0, metadata !541, i32 0, i32 0} ; [ DW_TAG_subroutine_type ]
!541 = metadata !{metadata !542, metadata !363, metadata !377}
!542 = metadata !{i32 589846, metadata !2, metadata !"reference", metadata !288, i32 114, i64 0, i64 0, i64 0, i32 0, metadata !543} ; [ DW_TAG_typedef ]
!543 = metadata !{i32 589846, metadata !2, metadata !"reference", metadata !288, i32 93, i64 0, i64 0, i64 0, i32 0, metadata !318} ; [ DW_TAG_typedef ]
!544 = metadata !{i32 589870, i32 0, metadata !287, metadata !"at", metadata !"at", metadata !"_ZNKSs2atEm", metadata !291, i32 760, metadata !535, i1 false, i1 false, i32 0, i32 0, null, i32 256, i1 false, null} ; [ DW_TAG_subprogram ]
!545 = metadata !{i32 589870, i32 0, metadata !287, metadata !"at", metadata !"at", metadata !"_ZNSs2atEm", metadata !291, i32 779, metadata !540, i1 false, i1 false, i32 0, i32 0, null, i32 256, i1 false, null} ; [ DW_TAG_subprogram ]
!546 = metadata !{i32 589870, i32 0, metadata !287, metadata !"operator+=", metadata !"operator+=", metadata !"_ZNSspLERKSs", metadata !291, i32 794, metadata !490, i1 false, i1 false, i32 0, i32 0, null, i32 256, i1 false, null} ; [ DW_TAG_subprogram ]
!547 = metadata !{i32 589870, i32 0, metadata !287, metadata !"operator+=", metadata !"operator+=", metadata !"_ZNSspLEPKc", metadata !291, i32 803, metadata !494, i1 false, i1 false, i32 0, i32 0, null, i32 256, i1 false, null} ; [ DW_TAG_subprogram ]
!548 = metadata !{i32 589870, i32 0, metadata !287, metadata !"operator+=", metadata !"operator+=", metadata !"_ZNSspLEc", metadata !291, i32 812, metadata !497, i1 false, i1 false, i32 0, i32 0, null, i32 256, i1 false, null} ; [ DW_TAG_subprogram ]
!549 = metadata !{i32 589870, i32 0, metadata !287, metadata !"append", metadata !"append", metadata !"_ZNSs6appendERKSs", metadata !291, i32 835, metadata !490, i1 false, i1 false, i32 0, i32 0, null, i32 256, i1 false, null} ; [ DW_TAG_subprogram ]
!550 = metadata !{i32 589870, i32 0, metadata !287, metadata !"append", metadata !"append", metadata !"_ZNSs6appendERKSsmm", metadata !291, i32 850, metadata !551, i1 false, i1 false, i32 0, i32 0, null, i32 256, i1 false, null} ; [ DW_TAG_subprogram ]
!551 = metadata !{i32 589845, metadata !288, metadata !"", metadata !288, i32 0, i64 0, i64 0, i32 0, i32 0, i32 0, metadata !552, i32 0, i32 0} ; [ DW_TAG_subroutine_type ]
!552 = metadata !{metadata !492, metadata !363, metadata !471, metadata !377, metadata !377}
!553 = metadata !{i32 589870, i32 0, metadata !287, metadata !"append", metadata !"append", metadata !"_ZNSs6appendEPKcm", metadata !291, i32 859, metadata !554, i1 false, i1 false, i32 0, i32 0, null, i32 256, i1 false, null} ; [ DW_TAG_subprogram ]
!554 = metadata !{i32 589845, metadata !288, metadata !"", metadata !288, i32 0, i64 0, i64 0, i32 0, i32 0, i32 0, metadata !555, i32 0, i32 0} ; [ DW_TAG_subroutine_type ]
!555 = metadata !{metadata !492, metadata !363, metadata !193, metadata !377}
!556 = metadata !{i32 589870, i32 0, metadata !287, metadata !"append", metadata !"append", metadata !"_ZNSs6appendEPKc", metadata !291, i32 867, metadata !494, i1 false, i1 false, i32 0, i32 0, null, i32 256, i1 false, null} ; [ DW_TAG_subprogram ]
!557 = metadata !{i32 589870, i32 0, metadata !287, metadata !"append", metadata !"append", metadata !"_ZNSs6appendEmc", metadata !291, i32 882, metadata !558, i1 false, i1 false, i32 0, i32 0, null, i32 256, i1 false, null} ; [ DW_TAG_subprogram ]
!558 = metadata !{i32 589845, metadata !288, metadata !"", metadata !288, i32 0, i64 0, i64 0, i32 0, i32 0, i32 0, metadata !559, i32 0, i32 0} ; [ DW_TAG_subroutine_type ]
!559 = metadata !{metadata !492, metadata !363, metadata !377, metadata !164}
!560 = metadata !{i32 589870, i32 0, metadata !287, metadata !"push_back", metadata !"push_back", metadata !"_ZNSs9push_backEc", metadata !291, i32 913, metadata !561, i1 false, i1 false, i32 0, i32 0, null, i32 256, i1 false, null} ; [ DW_TAG_subprogram ]
!561 = metadata !{i32 589845, metadata !288, metadata !"", metadata !288, i32 0, i64 0, i64 0, i32 0, i32 0, i32 0, metadata !562, i32 0, i32 0} ; [ DW_TAG_subroutine_type ]
!562 = metadata !{null, metadata !363, metadata !164}
!563 = metadata !{i32 589870, i32 0, metadata !287, metadata !"assign", metadata !"assign", metadata !"_ZNSs6assignERKSs", metadata !291, i32 928, metadata !490, i1 false, i1 false, i32 0, i32 0, null, i32 256, i1 false, null} ; [ DW_TAG_subprogram ]
!564 = metadata !{i32 589870, i32 0, metadata !287, metadata !"assign", metadata !"assign", metadata !"_ZNSs6assignERKSsmm", metadata !291, i32 943, metadata !551, i1 false, i1 false, i32 0, i32 0, null, i32 256, i1 false, null} ; [ DW_TAG_subprogram ]
!565 = metadata !{i32 589870, i32 0, metadata !287, metadata !"assign", metadata !"assign", metadata !"_ZNSs6assignEPKcm", metadata !291, i32 959, metadata !554, i1 false, i1 false, i32 0, i32 0, null, i32 256, i1 false, null} ; [ DW_TAG_subprogram ]
!566 = metadata !{i32 589870, i32 0, metadata !287, metadata !"assign", metadata !"assign", metadata !"_ZNSs6assignEPKc", metadata !291, i32 971, metadata !494, i1 false, i1 false, i32 0, i32 0, null, i32 256, i1 false, null} ; [ DW_TAG_subprogram ]
!567 = metadata !{i32 589870, i32 0, metadata !287, metadata !"assign", metadata !"assign", metadata !"_ZNSs6assignEmc", metadata !291, i32 987, metadata !558, i1 false, i1 false, i32 0, i32 0, null, i32 256, i1 false, null} ; [ DW_TAG_subprogram ]
!568 = metadata !{i32 589870, i32 0, metadata !287, metadata !"insert", metadata !"insert", metadata !"_ZNSs6insertEN9__gnu_cxx17__normal_iteratorIPcSsEEmc", metadata !291, i32 1027, metadata !569, i1 false, i1 false, i32 0, i32 0, null, i32 256, i1 false, null} ; [ DW_TAG_subprogram ]
!569 = metadata !{i32 589845, metadata !288, metadata !"", metadata !288, i32 0, i64 0, i64 0, i32 0, i32 0, i32 0, metadata !570, i32 0, i32 0} ; [ DW_TAG_subroutine_type ]
!570 = metadata !{null, metadata !363, metadata !417, metadata !377, metadata !164}
!571 = metadata !{i32 589870, i32 0, metadata !287, metadata !"insert", metadata !"insert", metadata !"_ZNSs6insertEmRKSs", metadata !291, i32 1070, metadata !572, i1 false, i1 false, i32 0, i32 0, null, i32 256, i1 false, null} ; [ DW_TAG_subprogram ]
!572 = metadata !{i32 589845, metadata !288, metadata !"", metadata !288, i32 0, i64 0, i64 0, i32 0, i32 0, i32 0, metadata !573, i32 0, i32 0} ; [ DW_TAG_subroutine_type ]
!573 = metadata !{metadata !492, metadata !363, metadata !377, metadata !471}
!574 = metadata !{i32 589870, i32 0, metadata !287, metadata !"insert", metadata !"insert", metadata !"_ZNSs6insertEmRKSsmm", metadata !291, i32 1092, metadata !575, i1 false, i1 false, i32 0, i32 0, null, i32 256, i1 false, null} ; [ DW_TAG_subprogram ]
!575 = metadata !{i32 589845, metadata !288, metadata !"", metadata !288, i32 0, i64 0, i64 0, i32 0, i32 0, i32 0, metadata !576, i32 0, i32 0} ; [ DW_TAG_subroutine_type ]
!576 = metadata !{metadata !492, metadata !363, metadata !377, metadata !471, metadata !377, metadata !377}
!577 = metadata !{i32 589870, i32 0, metadata !287, metadata !"insert", metadata !"insert", metadata !"_ZNSs6insertEmPKcm", metadata !291, i32 1115, metadata !578, i1 false, i1 false, i32 0, i32 0, null, i32 256, i1 false, null} ; [ DW_TAG_subprogram ]
!578 = metadata !{i32 589845, metadata !288, metadata !"", metadata !288, i32 0, i64 0, i64 0, i32 0, i32 0, i32 0, metadata !579, i32 0, i32 0} ; [ DW_TAG_subroutine_type ]
!579 = metadata !{metadata !492, metadata !363, metadata !377, metadata !193, metadata !377}
!580 = metadata !{i32 589870, i32 0, metadata !287, metadata !"insert", metadata !"insert", metadata !"_ZNSs6insertEmPKc", metadata !291, i32 1133, metadata !581, i1 false, i1 false, i32 0, i32 0, null, i32 256, i1 false, null} ; [ DW_TAG_subprogram ]
!581 = metadata !{i32 589845, metadata !288, metadata !"", metadata !288, i32 0, i64 0, i64 0, i32 0, i32 0, i32 0, metadata !582, i32 0, i32 0} ; [ DW_TAG_subroutine_type ]
!582 = metadata !{metadata !492, metadata !363, metadata !377, metadata !193}
!583 = metadata !{i32 589870, i32 0, metadata !287, metadata !"insert", metadata !"insert", metadata !"_ZNSs6insertEmmc", metadata !291, i32 1156, metadata !584, i1 false, i1 false, i32 0, i32 0, null, i32 256, i1 false, null} ; [ DW_TAG_subprogram ]
!584 = metadata !{i32 589845, metadata !288, metadata !"", metadata !288, i32 0, i64 0, i64 0, i32 0, i32 0, i32 0, metadata !585, i32 0, i32 0} ; [ DW_TAG_subroutine_type ]
!585 = metadata !{metadata !492, metadata !363, metadata !377, metadata !377, metadata !164}
!586 = metadata !{i32 589870, i32 0, metadata !287, metadata !"insert", metadata !"insert", metadata !"_ZNSs6insertEN9__gnu_cxx17__normal_iteratorIPcSsEEc", metadata !291, i32 1173, metadata !587, i1 false, i1 false, i32 0, i32 0, null, i32 256, i1 false, null} ; [ DW_TAG_subprogram ]
!587 = metadata !{i32 589845, metadata !288, metadata !"", metadata !288, i32 0, i64 0, i64 0, i32 0, i32 0, i32 0, metadata !588, i32 0, i32 0} ; [ DW_TAG_subroutine_type ]
!588 = metadata !{metadata !417, metadata !363, metadata !417, metadata !164}
!589 = metadata !{i32 589870, i32 0, metadata !287, metadata !"erase", metadata !"erase", metadata !"_ZNSs5eraseEmm", metadata !291, i32 1197, metadata !590, i1 false, i1 false, i32 0, i32 0, null, i32 256, i1 false, null} ; [ DW_TAG_subprogram ]
!590 = metadata !{i32 589845, metadata !288, metadata !"", metadata !288, i32 0, i64 0, i64 0, i32 0, i32 0, i32 0, metadata !591, i32 0, i32 0} ; [ DW_TAG_subroutine_type ]
!591 = metadata !{metadata !492, metadata !363, metadata !377, metadata !377}
!592 = metadata !{i32 589870, i32 0, metadata !287, metadata !"erase", metadata !"erase", metadata !"_ZNSs5eraseEN9__gnu_cxx17__normal_iteratorIPcSsEE", metadata !291, i32 1213, metadata !593, i1 false, i1 false, i32 0, i32 0, null, i32 256, i1 false, null} ; [ DW_TAG_subprogram ]
!593 = metadata !{i32 589845, metadata !288, metadata !"", metadata !288, i32 0, i64 0, i64 0, i32 0, i32 0, i32 0, metadata !594, i32 0, i32 0} ; [ DW_TAG_subroutine_type ]
!594 = metadata !{metadata !417, metadata !363, metadata !417}
!595 = metadata !{i32 589870, i32 0, metadata !287, metadata !"erase", metadata !"erase", metadata !"_ZNSs5eraseEN9__gnu_cxx17__normal_iteratorIPcSsEES2_", metadata !291, i32 1233, metadata !596, i1 false, i1 false, i32 0, i32 0, null, i32 256, i1 false, null} ; [ DW_TAG_subprogram ]
!596 = metadata !{i32 589845, metadata !288, metadata !"", metadata !288, i32 0, i64 0, i64 0, i32 0, i32 0, i32 0, metadata !597, i32 0, i32 0} ; [ DW_TAG_subroutine_type ]
!597 = metadata !{metadata !417, metadata !363, metadata !417, metadata !417}
!598 = metadata !{i32 589870, i32 0, metadata !287, metadata !"replace", metadata !"replace", metadata !"_ZNSs7replaceEmmRKSs", metadata !291, i32 1252, metadata !599, i1 false, i1 false, i32 0, i32 0, null, i32 256, i1 false, null} ; [ DW_TAG_subprogram ]
!599 = metadata !{i32 589845, metadata !288, metadata !"", metadata !288, i32 0, i64 0, i64 0, i32 0, i32 0, i32 0, metadata !600, i32 0, i32 0} ; [ DW_TAG_subroutine_type ]
!600 = metadata !{metadata !492, metadata !363, metadata !377, metadata !377, metadata !471}
!601 = metadata !{i32 589870, i32 0, metadata !287, metadata !"replace", metadata !"replace", metadata !"_ZNSs7replaceEmmRKSsmm", metadata !291, i32 1274, metadata !602, i1 false, i1 false, i32 0, i32 0, null, i32 256, i1 false, null} ; [ DW_TAG_subprogram ]
!602 = metadata !{i32 589845, metadata !288, metadata !"", metadata !288, i32 0, i64 0, i64 0, i32 0, i32 0, i32 0, metadata !603, i32 0, i32 0} ; [ DW_TAG_subroutine_type ]
!603 = metadata !{metadata !492, metadata !363, metadata !377, metadata !377, metadata !471, metadata !377, metadata !377}
!604 = metadata !{i32 589870, i32 0, metadata !287, metadata !"replace", metadata !"replace", metadata !"_ZNSs7replaceEmmPKcm", metadata !291, i32 1298, metadata !605, i1 false, i1 false, i32 0, i32 0, null, i32 256, i1 false, null} ; [ DW_TAG_subprogram ]
!605 = metadata !{i32 589845, metadata !288, metadata !"", metadata !288, i32 0, i64 0, i64 0, i32 0, i32 0, i32 0, metadata !606, i32 0, i32 0} ; [ DW_TAG_subroutine_type ]
!606 = metadata !{metadata !492, metadata !363, metadata !377, metadata !377, metadata !193, metadata !377}
!607 = metadata !{i32 589870, i32 0, metadata !287, metadata !"replace", metadata !"replace", metadata !"_ZNSs7replaceEmmPKc", metadata !291, i32 1317, metadata !608, i1 false, i1 false, i32 0, i32 0, null, i32 256, i1 false, null} ; [ DW_TAG_subprogram ]
!608 = metadata !{i32 589845, metadata !288, metadata !"", metadata !288, i32 0, i64 0, i64 0, i32 0, i32 0, i32 0, metadata !609, i32 0, i32 0} ; [ DW_TAG_subroutine_type ]
!609 = metadata !{metadata !492, metadata !363, metadata !377, metadata !377, metadata !193}
!610 = metadata !{i32 589870, i32 0, metadata !287, metadata !"replace", metadata !"replace", metadata !"_ZNSs7replaceEmmmc", metadata !291, i32 1340, metadata !611, i1 false, i1 false, i32 0, i32 0, null, i32 256, i1 false, null} ; [ DW_TAG_subprogram ]
!611 = metadata !{i32 589845, metadata !288, metadata !"", metadata !288, i32 0, i64 0, i64 0, i32 0, i32 0, i32 0, metadata !612, i32 0, i32 0} ; [ DW_TAG_subroutine_type ]
!612 = metadata !{metadata !492, metadata !363, metadata !377, metadata !377, metadata !377, metadata !164}
!613 = metadata !{i32 589870, i32 0, metadata !287, metadata !"replace", metadata !"replace", metadata !"_ZNSs7replaceEN9__gnu_cxx17__normal_iteratorIPcSsEES2_RKSs", metadata !291, i32 1358, metadata !614, i1 false, i1 false, i32 0, i32 0, null, i32 256, i1 false, null} ; [ DW_TAG_subprogram ]
!614 = metadata !{i32 589845, metadata !288, metadata !"", metadata !288, i32 0, i64 0, i64 0, i32 0, i32 0, i32 0, metadata !615, i32 0, i32 0} ; [ DW_TAG_subroutine_type ]
!615 = metadata !{metadata !492, metadata !363, metadata !417, metadata !417, metadata !471}
!616 = metadata !{i32 589870, i32 0, metadata !287, metadata !"replace", metadata !"replace", metadata !"_ZNSs7replaceEN9__gnu_cxx17__normal_iteratorIPcSsEES2_PKcm", metadata !291, i32 1376, metadata !617, i1 false, i1 false, i32 0, i32 0, null, i32 256, i1 false, null} ; [ DW_TAG_subprogram ]
!617 = metadata !{i32 589845, metadata !288, metadata !"", metadata !288, i32 0, i64 0, i64 0, i32 0, i32 0, i32 0, metadata !618, i32 0, i32 0} ; [ DW_TAG_subroutine_type ]
!618 = metadata !{metadata !492, metadata !363, metadata !417, metadata !417, metadata !193, metadata !377}
!619 = metadata !{i32 589870, i32 0, metadata !287, metadata !"replace", metadata !"replace", metadata !"_ZNSs7replaceEN9__gnu_cxx17__normal_iteratorIPcSsEES2_PKc", metadata !291, i32 1397, metadata !620, i1 false, i1 false, i32 0, i32 0, null, i32 256, i1 false, null} ; [ DW_TAG_subprogram ]
!620 = metadata !{i32 589845, metadata !288, metadata !"", metadata !288, i32 0, i64 0, i64 0, i32 0, i32 0, i32 0, metadata !621, i32 0, i32 0} ; [ DW_TAG_subroutine_type ]
!621 = metadata !{metadata !492, metadata !363, metadata !417, metadata !417, metadata !193}
!622 = metadata !{i32 589870, i32 0, metadata !287, metadata !"replace", metadata !"replace", metadata !"_ZNSs7replaceEN9__gnu_cxx17__normal_iteratorIPcSsEES2_mc", metadata !291, i32 1418, metadata !623, i1 false, i1 false, i32 0, i32 0, null, i32 256, i1 false, null} ; [ DW_TAG_subprogram ]
!623 = metadata !{i32 589845, metadata !288, metadata !"", metadata !288, i32 0, i64 0, i64 0, i32 0, i32 0, i32 0, metadata !624, i32 0, i32 0} ; [ DW_TAG_subroutine_type ]
!624 = metadata !{metadata !492, metadata !363, metadata !417, metadata !417, metadata !377, metadata !164}
!625 = metadata !{i32 589870, i32 0, metadata !287, metadata !"replace", metadata !"replace", metadata !"_ZNSs7replaceEN9__gnu_cxx17__normal_iteratorIPcSsEES2_S1_S1_", metadata !291, i32 1454, metadata !626, i1 false, i1 false, i32 0, i32 0, null, i32 256, i1 false, null} ; [ DW_TAG_subprogram ]
!626 = metadata !{i32 589845, metadata !288, metadata !"", metadata !288, i32 0, i64 0, i64 0, i32 0, i32 0, i32 0, metadata !627, i32 0, i32 0} ; [ DW_TAG_subroutine_type ]
!627 = metadata !{metadata !492, metadata !363, metadata !417, metadata !417, metadata !193, metadata !193}
!628 = metadata !{i32 589870, i32 0, metadata !287, metadata !"replace", metadata !"replace", metadata !"_ZNSs7replaceEN9__gnu_cxx17__normal_iteratorIPcSsEES2_PKcS4_", metadata !291, i32 1464, metadata !626, i1 false, i1 false, i32 0, i32 0, null, i32 256, i1 false, null} ; [ DW_TAG_subprogram ]
!629 = metadata !{i32 589870, i32 0, metadata !287, metadata !"replace", metadata !"replace", metadata !"_ZNSs7replaceEN9__gnu_cxx17__normal_iteratorIPcSsEES2_S2_S2_", metadata !291, i32 1475, metadata !630, i1 false, i1 false, i32 0, i32 0, null, i32 256, i1 false, null} ; [ DW_TAG_subprogram ]
!630 = metadata !{i32 589845, metadata !288, metadata !"", metadata !288, i32 0, i64 0, i64 0, i32 0, i32 0, i32 0, metadata !631, i32 0, i32 0} ; [ DW_TAG_subroutine_type ]
!631 = metadata !{metadata !492, metadata !363, metadata !417, metadata !417, metadata !417, metadata !417}
!632 = metadata !{i32 589870, i32 0, metadata !287, metadata !"replace", metadata !"replace", metadata !"_ZNSs7replaceEN9__gnu_cxx17__normal_iteratorIPcSsEES2_NS0_IPKcSsEES5_", metadata !291, i32 1485, metadata !633, i1 false, i1 false, i32 0, i32 0, null, i32 256, i1 false, null} ; [ DW_TAG_subprogram ]
!633 = metadata !{i32 589845, metadata !288, metadata !"", metadata !288, i32 0, i64 0, i64 0, i32 0, i32 0, i32 0, metadata !634, i32 0, i32 0} ; [ DW_TAG_subroutine_type ]
!634 = metadata !{metadata !492, metadata !363, metadata !417, metadata !417, metadata !450, metadata !450}
!635 = metadata !{i32 589870, i32 0, metadata !287, metadata !"_M_replace_aux", metadata !"_M_replace_aux", metadata !"_ZNSs14_M_replace_auxEmmmc", metadata !291, i32 1527, metadata !611, i1 false, i1 false, i32 0, i32 0, null, i32 257, i1 false, null} ; [ DW_TAG_subprogram ]
!636 = metadata !{i32 589870, i32 0, metadata !287, metadata !"_M_replace_safe", metadata !"_M_replace_safe", metadata !"_ZNSs15_M_replace_safeEmmPKcm", metadata !291, i32 1531, metadata !605, i1 false, i1 false, i32 0, i32 0, null, i32 257, i1 false, null} ; [ DW_TAG_subprogram ]
!637 = metadata !{i32 589870, i32 0, metadata !287, metadata !"_S_construct", metadata !"_S_construct", metadata !"_ZNSs12_S_constructEmcRKSaIcE", metadata !291, i32 1575, metadata !638, i1 false, i1 false, i32 0, i32 0, null, i32 257, i1 false, null} ; [ DW_TAG_subprogram ]
!638 = metadata !{i32 589845, metadata !288, metadata !"", metadata !288, i32 0, i64 0, i64 0, i32 0, i32 0, i32 0, metadata !639, i32 0, i32 0} ; [ DW_TAG_subroutine_type ]
!639 = metadata !{metadata !193, metadata !377, metadata !164, metadata !359}
!640 = metadata !{i32 589870, i32 0, metadata !287, metadata !"copy", metadata !"copy", metadata !"_ZNKSs4copyEPcmm", metadata !291, i32 1591, metadata !641, i1 false, i1 false, i32 0, i32 0, null, i32 256, i1 false, null} ; [ DW_TAG_subprogram ]
!641 = metadata !{i32 589845, metadata !288, metadata !"", metadata !288, i32 0, i64 0, i64 0, i32 0, i32 0, i32 0, metadata !642, i32 0, i32 0} ; [ DW_TAG_subroutine_type ]
!642 = metadata !{metadata !377, metadata !363, metadata !193, metadata !377, metadata !377}
!643 = metadata !{i32 589870, i32 0, metadata !287, metadata !"swap", metadata !"swap", metadata !"_ZNSs4swapERSs", metadata !291, i32 1601, metadata !644, i1 false, i1 false, i32 0, i32 0, null, i32 256, i1 false, null} ; [ DW_TAG_subprogram ]
!644 = metadata !{i32 589845, metadata !288, metadata !"", metadata !288, i32 0, i64 0, i64 0, i32 0, i32 0, i32 0, metadata !645, i32 0, i32 0} ; [ DW_TAG_subroutine_type ]
!645 = metadata !{null, metadata !363, metadata !492}
!646 = metadata !{i32 589870, i32 0, metadata !287, metadata !"c_str", metadata !"c_str", metadata !"_ZNKSs5c_strEv", metadata !291, i32 1611, metadata !361, i1 false, i1 false, i32 0, i32 0, null, i32 256, i1 false, null} ; [ DW_TAG_subprogram ]
!647 = metadata !{i32 589870, i32 0, metadata !287, metadata !"data", metadata !"data", metadata !"_ZNKSs4dataEv", metadata !291, i32 1621, metadata !361, i1 false, i1 false, i32 0, i32 0, null, i32 256, i1 false, null} ; [ DW_TAG_subprogram ]
!648 = metadata !{i32 589870, i32 0, metadata !287, metadata !"get_allocator", metadata !"get_allocator", metadata !"_ZNKSs13get_allocatorEv", metadata !291, i32 1628, metadata !649, i1 false, i1 false, i32 0, i32 0, null, i32 256, i1 false, null} ; [ DW_TAG_subprogram ]
!649 = metadata !{i32 589845, metadata !288, metadata !"", metadata !288, i32 0, i64 0, i64 0, i32 0, i32 0, i32 0, metadata !650, i32 0, i32 0} ; [ DW_TAG_subroutine_type ]
!650 = metadata !{metadata !651, metadata !363}
!651 = metadata !{i32 589846, metadata !285, metadata !"allocator_type", metadata !288, i32 111, i64 0, i64 0, i64 0, i32 0, metadata !295} ; [ DW_TAG_typedef ]
!652 = metadata !{i32 589870, i32 0, metadata !287, metadata !"find", metadata !"find", metadata !"_ZNKSs4findEPKcmm", metadata !291, i32 1643, metadata !641, i1 false, i1 false, i32 0, i32 0, null, i32 256, i1 false, null} ; [ DW_TAG_subprogram ]
!653 = metadata !{i32 589870, i32 0, metadata !287, metadata !"find", metadata !"find", metadata !"_ZNKSs4findERKSsm", metadata !291, i32 1656, metadata !654, i1 false, i1 false, i32 0, i32 0, null, i32 256, i1 false, null} ; [ DW_TAG_subprogram ]
!654 = metadata !{i32 589845, metadata !288, metadata !"", metadata !288, i32 0, i64 0, i64 0, i32 0, i32 0, i32 0, metadata !655, i32 0, i32 0} ; [ DW_TAG_subroutine_type ]
!655 = metadata !{metadata !377, metadata !363, metadata !471, metadata !377}
!656 = metadata !{i32 589870, i32 0, metadata !287, metadata !"find", metadata !"find", metadata !"_ZNKSs4findEPKcm", metadata !291, i32 1670, metadata !657, i1 false, i1 false, i32 0, i32 0, null, i32 256, i1 false, null} ; [ DW_TAG_subprogram ]
!657 = metadata !{i32 589845, metadata !288, metadata !"", metadata !288, i32 0, i64 0, i64 0, i32 0, i32 0, i32 0, metadata !658, i32 0, i32 0} ; [ DW_TAG_subroutine_type ]
!658 = metadata !{metadata !377, metadata !363, metadata !193, metadata !377}
!659 = metadata !{i32 589870, i32 0, metadata !287, metadata !"find", metadata !"find", metadata !"_ZNKSs4findEcm", metadata !291, i32 1687, metadata !660, i1 false, i1 false, i32 0, i32 0, null, i32 256, i1 false, null} ; [ DW_TAG_subprogram ]
!660 = metadata !{i32 589845, metadata !288, metadata !"", metadata !288, i32 0, i64 0, i64 0, i32 0, i32 0, i32 0, metadata !661, i32 0, i32 0} ; [ DW_TAG_subroutine_type ]
!661 = metadata !{metadata !377, metadata !363, metadata !164, metadata !377}
!662 = metadata !{i32 589870, i32 0, metadata !287, metadata !"rfind", metadata !"rfind", metadata !"_ZNKSs5rfindERKSsm", metadata !291, i32 1700, metadata !654, i1 false, i1 false, i32 0, i32 0, null, i32 256, i1 false, null} ; [ DW_TAG_subprogram ]
!663 = metadata !{i32 589870, i32 0, metadata !287, metadata !"rfind", metadata !"rfind", metadata !"_ZNKSs5rfindEPKcmm", metadata !291, i32 1715, metadata !641, i1 false, i1 false, i32 0, i32 0, null, i32 256, i1 false, null} ; [ DW_TAG_subprogram ]
!664 = metadata !{i32 589870, i32 0, metadata !287, metadata !"rfind", metadata !"rfind", metadata !"_ZNKSs5rfindEPKcm", metadata !291, i32 1728, metadata !657, i1 false, i1 false, i32 0, i32 0, null, i32 256, i1 false, null} ; [ DW_TAG_subprogram ]
!665 = metadata !{i32 589870, i32 0, metadata !287, metadata !"rfind", metadata !"rfind", metadata !"_ZNKSs5rfindEcm", metadata !291, i32 1745, metadata !660, i1 false, i1 false, i32 0, i32 0, null, i32 256, i1 false, null} ; [ DW_TAG_subprogram ]
!666 = metadata !{i32 589870, i32 0, metadata !287, metadata !"find_first_of", metadata !"find_first_of", metadata !"_ZNKSs13find_first_ofERKSsm", metadata !291, i32 1758, metadata !654, i1 false, i1 false, i32 0, i32 0, null, i32 256, i1 false, null} ; [ DW_TAG_subprogram ]
!667 = metadata !{i32 589870, i32 0, metadata !287, metadata !"find_first_of", metadata !"find_first_of", metadata !"_ZNKSs13find_first_ofEPKcmm", metadata !291, i32 1773, metadata !641, i1 false, i1 false, i32 0, i32 0, null, i32 256, i1 false, null} ; [ DW_TAG_subprogram ]
!668 = metadata !{i32 589870, i32 0, metadata !287, metadata !"find_first_of", metadata !"find_first_of", metadata !"_ZNKSs13find_first_ofEPKcm", metadata !291, i32 1786, metadata !657, i1 false, i1 false, i32 0, i32 0, null, i32 256, i1 false, null} ; [ DW_TAG_subprogram ]
!669 = metadata !{i32 589870, i32 0, metadata !287, metadata !"find_first_of", metadata !"find_first_of", metadata !"_ZNKSs13find_first_ofEcm", metadata !291, i32 1805, metadata !660, i1 false, i1 false, i32 0, i32 0, null, i32 256, i1 false, null} ; [ DW_TAG_subprogram ]
!670 = metadata !{i32 589870, i32 0, metadata !287, metadata !"find_last_of", metadata !"find_last_of", metadata !"_ZNKSs12find_last_ofERKSsm", metadata !291, i32 1819, metadata !654, i1 false, i1 false, i32 0, i32 0, null, i32 256, i1 false, null} ; [ DW_TAG_subprogram ]
!671 = metadata !{i32 589870, i32 0, metadata !287, metadata !"find_last_of", metadata !"find_last_of", metadata !"_ZNKSs12find_last_ofEPKcmm", metadata !291, i32 1834, metadata !641, i1 false, i1 false, i32 0, i32 0, null, i32 256, i1 false, null} ; [ DW_TAG_subprogram ]
!672 = metadata !{i32 589870, i32 0, metadata !287, metadata !"find_last_of", metadata !"find_last_of", metadata !"_ZNKSs12find_last_ofEPKcm", metadata !291, i32 1847, metadata !657, i1 false, i1 false, i32 0, i32 0, null, i32 256, i1 false, null} ; [ DW_TAG_subprogram ]
!673 = metadata !{i32 589870, i32 0, metadata !287, metadata !"find_last_of", metadata !"find_last_of", metadata !"_ZNKSs12find_last_ofEcm", metadata !291, i32 1866, metadata !660, i1 false, i1 false, i32 0, i32 0, null, i32 256, i1 false, null} ; [ DW_TAG_subprogram ]
!674 = metadata !{i32 589870, i32 0, metadata !287, metadata !"find_first_not_of", metadata !"find_first_not_of", metadata !"_ZNKSs17find_first_not_ofERKSsm", metadata !291, i32 1880, metadata !654, i1 false, i1 false, i32 0, i32 0, null, i32 256, i1 false, null} ; [ DW_TAG_subprogram ]
!675 = metadata !{i32 589870, i32 0, metadata !287, metadata !"find_first_not_of", metadata !"find_first_not_of", metadata !"_ZNKSs17find_first_not_ofEPKcmm", metadata !291, i32 1895, metadata !641, i1 false, i1 false, i32 0, i32 0, null, i32 256, i1 false, null} ; [ DW_TAG_subprogram ]
!676 = metadata !{i32 589870, i32 0, metadata !287, metadata !"find_first_not_of", metadata !"find_first_not_of", metadata !"_ZNKSs17find_first_not_ofEPKcm", metadata !291, i32 1909, metadata !657, i1 false, i1 false, i32 0, i32 0, null, i32 256, i1 false, null} ; [ DW_TAG_subprogram ]
!677 = metadata !{i32 589870, i32 0, metadata !287, metadata !"find_first_not_of", metadata !"find_first_not_of", metadata !"_ZNKSs17find_first_not_ofEcm", metadata !291, i32 1926, metadata !660, i1 false, i1 false, i32 0, i32 0, null, i32 256, i1 false, null} ; [ DW_TAG_subprogram ]
!678 = metadata !{i32 589870, i32 0, metadata !287, metadata !"find_last_not_of", metadata !"find_last_not_of", metadata !"_ZNKSs16find_last_not_ofERKSsm", metadata !291, i32 1939, metadata !654, i1 false, i1 false, i32 0, i32 0, null, i32 256, i1 false, null} ; [ DW_TAG_subprogram ]
!679 = metadata !{i32 589870, i32 0, metadata !287, metadata !"find_last_not_of", metadata !"find_last_not_of", metadata !"_ZNKSs16find_last_not_ofEPKcmm", metadata !291, i32 1955, metadata !641, i1 false, i1 false, i32 0, i32 0, null, i32 256, i1 false, null} ; [ DW_TAG_subprogram ]
!680 = metadata !{i32 589870, i32 0, metadata !287, metadata !"find_last_not_of", metadata !"find_last_not_of", metadata !"_ZNKSs16find_last_not_ofEPKcm", metadata !291, i32 1968, metadata !657, i1 false, i1 false, i32 0, i32 0, null, i32 256, i1 false, null} ; [ DW_TAG_subprogram ]
!681 = metadata !{i32 589870, i32 0, metadata !287, metadata !"find_last_not_of", metadata !"find_last_not_of", metadata !"_ZNKSs16find_last_not_ofEcm", metadata !291, i32 1985, metadata !660, i1 false, i1 false, i32 0, i32 0, null, i32 256, i1 false, null} ; [ DW_TAG_subprogram ]
!682 = metadata !{i32 589870, i32 0, metadata !287, metadata !"substr", metadata !"substr", metadata !"_ZNKSs6substrEmm", metadata !291, i32 2000, metadata !683, i1 false, i1 false, i32 0, i32 0, null, i32 256, i1 false, null} ; [ DW_TAG_subprogram ]
!683 = metadata !{i32 589845, metadata !288, metadata !"", metadata !288, i32 0, i64 0, i64 0, i32 0, i32 0, i32 0, metadata !684, i32 0, i32 0} ; [ DW_TAG_subroutine_type ]
!684 = metadata !{metadata !287, metadata !363, metadata !377, metadata !377}
!685 = metadata !{i32 589870, i32 0, metadata !287, metadata !"compare", metadata !"compare", metadata !"_ZNKSs7compareERKSs", metadata !291, i32 2018, metadata !686, i1 false, i1 false, i32 0, i32 0, null, i32 256, i1 false, null} ; [ DW_TAG_subprogram ]
!686 = metadata !{i32 589845, metadata !288, metadata !"", metadata !288, i32 0, i64 0, i64 0, i32 0, i32 0, i32 0, metadata !687, i32 0, i32 0} ; [ DW_TAG_subroutine_type ]
!687 = metadata !{metadata !54, metadata !363, metadata !471}
!688 = metadata !{i32 589870, i32 0, metadata !287, metadata !"compare", metadata !"compare", metadata !"_ZNKSs7compareEmmRKSs", metadata !291, i32 2048, metadata !689, i1 false, i1 false, i32 0, i32 0, null, i32 256, i1 false, null} ; [ DW_TAG_subprogram ]
!689 = metadata !{i32 589845, metadata !288, metadata !"", metadata !288, i32 0, i64 0, i64 0, i32 0, i32 0, i32 0, metadata !690, i32 0, i32 0} ; [ DW_TAG_subroutine_type ]
!690 = metadata !{metadata !54, metadata !363, metadata !377, metadata !377, metadata !471}
!691 = metadata !{i32 589870, i32 0, metadata !287, metadata !"compare", metadata !"compare", metadata !"_ZNKSs7compareEmmRKSsmm", metadata !291, i32 2072, metadata !692, i1 false, i1 false, i32 0, i32 0, null, i32 256, i1 false, null} ; [ DW_TAG_subprogram ]
!692 = metadata !{i32 589845, metadata !288, metadata !"", metadata !288, i32 0, i64 0, i64 0, i32 0, i32 0, i32 0, metadata !693, i32 0, i32 0} ; [ DW_TAG_subroutine_type ]
!693 = metadata !{metadata !54, metadata !363, metadata !377, metadata !377, metadata !471, metadata !377, metadata !377}
!694 = metadata !{i32 589870, i32 0, metadata !287, metadata !"compare", metadata !"compare", metadata !"_ZNKSs7compareEPKc", metadata !291, i32 2090, metadata !695, i1 false, i1 false, i32 0, i32 0, null, i32 256, i1 false, null} ; [ DW_TAG_subprogram ]
!695 = metadata !{i32 589845, metadata !288, metadata !"", metadata !288, i32 0, i64 0, i64 0, i32 0, i32 0, i32 0, metadata !696, i32 0, i32 0} ; [ DW_TAG_subroutine_type ]
!696 = metadata !{metadata !54, metadata !363, metadata !193}
!697 = metadata !{i32 589870, i32 0, metadata !287, metadata !"compare", metadata !"compare", metadata !"_ZNKSs7compareEmmPKc", metadata !291, i32 2113, metadata !698, i1 false, i1 false, i32 0, i32 0, null, i32 256, i1 false, null} ; [ DW_TAG_subprogram ]
!698 = metadata !{i32 589845, metadata !288, metadata !"", metadata !288, i32 0, i64 0, i64 0, i32 0, i32 0, i32 0, metadata !699, i32 0, i32 0} ; [ DW_TAG_subroutine_type ]
!699 = metadata !{metadata !54, metadata !363, metadata !377, metadata !377, metadata !193}
!700 = metadata !{i32 589870, i32 0, metadata !287, metadata !"compare", metadata !"compare", metadata !"_ZNKSs7compareEmmPKcm", metadata !291, i32 2138, metadata !701, i1 false, i1 false, i32 0, i32 0, null, i32 256, i1 false, null} ; [ DW_TAG_subprogram ]
!701 = metadata !{i32 589845, metadata !288, metadata !"", metadata !288, i32 0, i64 0, i64 0, i32 0, i32 0, i32 0, metadata !702, i32 0, i32 0} ; [ DW_TAG_subroutine_type ]
!702 = metadata !{metadata !54, metadata !363, metadata !377, metadata !377, metadata !193, metadata !377}
!703 = metadata !{metadata !343, metadata !704, metadata !756}
!704 = metadata !{i32 589871, metadata !2, metadata !"char_traits<char>", metadata !705, null, i32 0, i32 0} ; [ DW_TAG_template_type_parameter ]
!705 = metadata !{i32 589826, metadata !706, metadata !"char_traits<char>", metadata !707, i32 236, i64 8, i64 8, i32 0, i32 0, null, metadata !708, i32 0, null, metadata !342} ; [ DW_TAG_class_type ]
!706 = metadata !{i32 589881, metadata !2, metadata !"std", metadata !707, i32 214} ; [ DW_TAG_namespace ]
!707 = metadata !{i32 589865, metadata !"/usr/include/c++/4.4/bits/char_traits.h", metadata !"/home/brian/llvm/tools/clang-2.9", metadata !2} ; [ DW_TAG_file_type ]
!708 = metadata !{metadata !709, metadata !716, metadata !719, metadata !720, metadata !724, metadata !727, metadata !730, metadata !734, metadata !735, metadata !738, metadata !744, metadata !747, metadata !750, metadata !753}
!709 = metadata !{i32 589870, i32 0, metadata !705, metadata !"assign", metadata !"assign", metadata !"_ZNSt11char_traitsIcE6assignERcRKc", metadata !707, i32 245, metadata !710, i1 false, i1 false, i32 0, i32 0, null, i32 256, i1 false, null} ; [ DW_TAG_subprogram ]
!710 = metadata !{i32 589845, metadata !707, metadata !"", metadata !707, i32 0, i64 0, i64 0, i32 0, i32 0, i32 0, metadata !711, i32 0, i32 0} ; [ DW_TAG_subroutine_type ]
!711 = metadata !{null, metadata !712, metadata !714}
!712 = metadata !{i32 589840, metadata !2, null, null, i32 0, i64 0, i64 0, i64 0, i32 0, metadata !713} ; [ DW_TAG_reference_type ]
!713 = metadata !{i32 589846, metadata !2, metadata !"char_type", metadata !707, i32 238, i64 0, i64 0, i64 0, i32 0, metadata !164} ; [ DW_TAG_typedef ]
!714 = metadata !{i32 589840, metadata !2, null, null, i32 0, i64 0, i64 0, i64 0, i32 0, metadata !715} ; [ DW_TAG_reference_type ]
!715 = metadata !{i32 589862, metadata !2, metadata !"", null, i32 0, i64 0, i64 0, i64 0, i32 0, metadata !713} ; [ DW_TAG_const_type ]
!716 = metadata !{i32 589870, i32 0, metadata !705, metadata !"eq", metadata !"eq", metadata !"_ZNSt11char_traitsIcE2eqERKcS2_", metadata !707, i32 249, metadata !717, i1 false, i1 false, i32 0, i32 0, null, i32 256, i1 false, null} ; [ DW_TAG_subprogram ]
!717 = metadata !{i32 589845, metadata !707, metadata !"", metadata !707, i32 0, i64 0, i64 0, i32 0, i32 0, i32 0, metadata !718, i32 0, i32 0} ; [ DW_TAG_subroutine_type ]
!718 = metadata !{metadata !218, metadata !714, metadata !714}
!719 = metadata !{i32 589870, i32 0, metadata !705, metadata !"lt", metadata !"lt", metadata !"_ZNSt11char_traitsIcE2ltERKcS2_", metadata !707, i32 253, metadata !717, i1 false, i1 false, i32 0, i32 0, null, i32 256, i1 false, null} ; [ DW_TAG_subprogram ]
!720 = metadata !{i32 589870, i32 0, metadata !705, metadata !"compare", metadata !"compare", metadata !"_ZNSt11char_traitsIcE7compareEPKcS2_m", metadata !707, i32 257, metadata !721, i1 false, i1 false, i32 0, i32 0, null, i32 256, i1 false, null} ; [ DW_TAG_subprogram ]
!721 = metadata !{i32 589845, metadata !707, metadata !"", metadata !707, i32 0, i64 0, i64 0, i32 0, i32 0, i32 0, metadata !722, i32 0, i32 0} ; [ DW_TAG_subroutine_type ]
!722 = metadata !{metadata !54, metadata !723, metadata !723, metadata !131}
!723 = metadata !{i32 589839, metadata !2, metadata !"", null, i32 0, i64 64, i64 64, i64 0, i32 0, metadata !715} ; [ DW_TAG_pointer_type ]
!724 = metadata !{i32 589870, i32 0, metadata !705, metadata !"length", metadata !"length", metadata !"_ZNSt11char_traitsIcE6lengthEPKc", metadata !707, i32 261, metadata !725, i1 false, i1 false, i32 0, i32 0, null, i32 256, i1 false, null} ; [ DW_TAG_subprogram ]
!725 = metadata !{i32 589845, metadata !707, metadata !"", metadata !707, i32 0, i64 0, i64 0, i32 0, i32 0, i32 0, metadata !726, i32 0, i32 0} ; [ DW_TAG_subroutine_type ]
!726 = metadata !{metadata !131, metadata !723}
!727 = metadata !{i32 589870, i32 0, metadata !705, metadata !"find", metadata !"find", metadata !"_ZNSt11char_traitsIcE4findEPKcmRS1_", metadata !707, i32 265, metadata !728, i1 false, i1 false, i32 0, i32 0, null, i32 256, i1 false, null} ; [ DW_TAG_subprogram ]
!728 = metadata !{i32 589845, metadata !707, metadata !"", metadata !707, i32 0, i64 0, i64 0, i32 0, i32 0, i32 0, metadata !729, i32 0, i32 0} ; [ DW_TAG_subroutine_type ]
!729 = metadata !{metadata !723, metadata !723, metadata !131, metadata !714}
!730 = metadata !{i32 589870, i32 0, metadata !705, metadata !"move", metadata !"move", metadata !"_ZNSt11char_traitsIcE4moveEPcPKcm", metadata !707, i32 269, metadata !731, i1 false, i1 false, i32 0, i32 0, null, i32 256, i1 false, null} ; [ DW_TAG_subprogram ]
!731 = metadata !{i32 589845, metadata !707, metadata !"", metadata !707, i32 0, i64 0, i64 0, i32 0, i32 0, i32 0, metadata !732, i32 0, i32 0} ; [ DW_TAG_subroutine_type ]
!732 = metadata !{metadata !733, metadata !733, metadata !723, metadata !131}
!733 = metadata !{i32 589839, metadata !2, metadata !"", null, i32 0, i64 64, i64 64, i64 0, i32 0, metadata !713} ; [ DW_TAG_pointer_type ]
!734 = metadata !{i32 589870, i32 0, metadata !705, metadata !"copy", metadata !"copy", metadata !"_ZNSt11char_traitsIcE4copyEPcPKcm", metadata !707, i32 273, metadata !731, i1 false, i1 false, i32 0, i32 0, null, i32 256, i1 false, null} ; [ DW_TAG_subprogram ]
!735 = metadata !{i32 589870, i32 0, metadata !705, metadata !"assign", metadata !"assign", metadata !"_ZNSt11char_traitsIcE6assignEPcmc", metadata !707, i32 277, metadata !736, i1 false, i1 false, i32 0, i32 0, null, i32 256, i1 false, null} ; [ DW_TAG_subprogram ]
!736 = metadata !{i32 589845, metadata !707, metadata !"", metadata !707, i32 0, i64 0, i64 0, i32 0, i32 0, i32 0, metadata !737, i32 0, i32 0} ; [ DW_TAG_subroutine_type ]
!737 = metadata !{metadata !733, metadata !733, metadata !131, metadata !713}
!738 = metadata !{i32 589870, i32 0, metadata !705, metadata !"to_char_type", metadata !"to_char_type", metadata !"_ZNSt11char_traitsIcE12to_char_typeERKi", metadata !707, i32 281, metadata !739, i1 false, i1 false, i32 0, i32 0, null, i32 256, i1 false, null} ; [ DW_TAG_subprogram ]
!739 = metadata !{i32 589845, metadata !707, metadata !"", metadata !707, i32 0, i64 0, i64 0, i32 0, i32 0, i32 0, metadata !740, i32 0, i32 0} ; [ DW_TAG_subroutine_type ]
!740 = metadata !{metadata !713, metadata !741}
!741 = metadata !{i32 589840, metadata !2, null, null, i32 0, i64 0, i64 0, i64 0, i32 0, metadata !742} ; [ DW_TAG_reference_type ]
!742 = metadata !{i32 589862, metadata !2, metadata !"", null, i32 0, i64 0, i64 0, i64 0, i32 0, metadata !743} ; [ DW_TAG_const_type ]
!743 = metadata !{i32 589846, metadata !2, metadata !"int_type", metadata !707, i32 239, i64 0, i64 0, i64 0, i32 0, metadata !54} ; [ DW_TAG_typedef ]
!744 = metadata !{i32 589870, i32 0, metadata !705, metadata !"to_int_type", metadata !"to_int_type", metadata !"_ZNSt11char_traitsIcE11to_int_typeERKc", metadata !707, i32 287, metadata !745, i1 false, i1 false, i32 0, i32 0, null, i32 256, i1 false, null} ; [ DW_TAG_subprogram ]
!745 = metadata !{i32 589845, metadata !707, metadata !"", metadata !707, i32 0, i64 0, i64 0, i32 0, i32 0, i32 0, metadata !746, i32 0, i32 0} ; [ DW_TAG_subroutine_type ]
!746 = metadata !{metadata !743, metadata !714}
!747 = metadata !{i32 589870, i32 0, metadata !705, metadata !"eq_int_type", metadata !"eq_int_type", metadata !"_ZNSt11char_traitsIcE11eq_int_typeERKiS2_", metadata !707, i32 291, metadata !748, i1 false, i1 false, i32 0, i32 0, null, i32 256, i1 false, null} ; [ DW_TAG_subprogram ]
!748 = metadata !{i32 589845, metadata !707, metadata !"", metadata !707, i32 0, i64 0, i64 0, i32 0, i32 0, i32 0, metadata !749, i32 0, i32 0} ; [ DW_TAG_subroutine_type ]
!749 = metadata !{metadata !218, metadata !741, metadata !741}
!750 = metadata !{i32 589870, i32 0, metadata !705, metadata !"eof", metadata !"eof", metadata !"_ZNSt11char_traitsIcE3eofEv", metadata !707, i32 295, metadata !751, i1 false, i1 false, i32 0, i32 0, null, i32 256, i1 false, null} ; [ DW_TAG_subprogram ]
!751 = metadata !{i32 589845, metadata !707, metadata !"", metadata !707, i32 0, i64 0, i64 0, i32 0, i32 0, i32 0, metadata !752, i32 0, i32 0} ; [ DW_TAG_subroutine_type ]
!752 = metadata !{metadata !743}
!753 = metadata !{i32 589870, i32 0, metadata !705, metadata !"not_eof", metadata !"not_eof", metadata !"_ZNSt11char_traitsIcE7not_eofERKi", metadata !707, i32 299, metadata !754, i1 false, i1 false, i32 0, i32 0, null, i32 256, i1 false, null} ; [ DW_TAG_subprogram ]
!754 = metadata !{i32 589845, metadata !707, metadata !"", metadata !707, i32 0, i64 0, i64 0, i32 0, i32 0, i32 0, metadata !755, i32 0, i32 0} ; [ DW_TAG_subroutine_type ]
!755 = metadata !{metadata !743, metadata !741}
!756 = metadata !{i32 589871, metadata !2, metadata !"allocator<char>", metadata !295, null, i32 0, i32 0} ; [ DW_TAG_template_type_parameter ]
!757 = metadata !{i32 589870, i32 0, metadata !107, metadata !"operator==", metadata !"operator==", metadata !"_ZNKSt6localeeqERKS_", metadata !109, i32 223, metadata !758, i1 false, i1 false, i32 0, i32 0, null, i32 256, i1 false, null} ; [ DW_TAG_subprogram ]
!758 = metadata !{i32 589845, metadata !109, metadata !"", metadata !109, i32 0, i64 0, i64 0, i32 0, i32 0, i32 0, metadata !759, i32 0, i32 0} ; [ DW_TAG_subroutine_type ]
!759 = metadata !{metadata !218, metadata !262, metadata !266}
!760 = metadata !{i32 589870, i32 0, metadata !107, metadata !"operator!=", metadata !"operator!=", metadata !"_ZNKSt6localeneERKS_", metadata !109, i32 232, metadata !758, i1 false, i1 false, i32 0, i32 0, null, i32 256, i1 false, null} ; [ DW_TAG_subprogram ]
!761 = metadata !{i32 589870, i32 0, metadata !107, metadata !"global", metadata !"global", metadata !"_ZNSt6locale6globalERKS_", metadata !109, i32 267, metadata !762, i1 false, i1 false, i32 0, i32 0, null, i32 256, i1 false, null} ; [ DW_TAG_subprogram ]
!762 = metadata !{i32 589845, metadata !109, metadata !"", metadata !109, i32 0, i64 0, i64 0, i32 0, i32 0, i32 0, metadata !763, i32 0, i32 0} ; [ DW_TAG_subroutine_type ]
!763 = metadata !{metadata !107, metadata !266}
!764 = metadata !{i32 589870, i32 0, metadata !107, metadata !"classic", metadata !"classic", metadata !"_ZNSt6locale7classicEv", metadata !109, i32 273, metadata !765, i1 false, i1 false, i32 0, i32 0, null, i32 256, i1 false, null} ; [ DW_TAG_subprogram ]
!765 = metadata !{i32 589845, metadata !109, metadata !"", metadata !109, i32 0, i64 0, i64 0, i32 0, i32 0, i32 0, metadata !766, i32 0, i32 0} ; [ DW_TAG_subroutine_type ]
!766 = metadata !{metadata !266}
!767 = metadata !{i32 589870, i32 0, metadata !107, metadata !"locale", metadata !"locale", metadata !"", metadata !109, i32 308, metadata !768, i1 false, i1 false, i32 0, i32 0, null, i32 385, i1 false, null} ; [ DW_TAG_subprogram ]
!768 = metadata !{i32 589845, metadata !109, metadata !"", metadata !109, i32 0, i64 0, i64 0, i32 0, i32 0, i32 0, metadata !769, i32 0, i32 0} ; [ DW_TAG_subroutine_type ]
!769 = metadata !{null, metadata !262, metadata !112}
!770 = metadata !{i32 589870, i32 0, metadata !107, metadata !"_S_initialize", metadata !"_S_initialize", metadata !"_ZNSt6locale13_S_initializeEv", metadata !109, i32 311, metadata !125, i1 false, i1 false, i32 0, i32 0, null, i32 257, i1 false, null} ; [ DW_TAG_subprogram ]
!771 = metadata !{i32 589870, i32 0, metadata !107, metadata !"_S_initialize_once", metadata !"_S_initialize_once", metadata !"_ZNSt6locale18_S_initialize_onceEv", metadata !109, i32 314, metadata !125, i1 false, i1 false, i32 0, i32 0, null, i32 257, i1 false, null} ; [ DW_TAG_subprogram ]
!772 = metadata !{i32 589870, i32 0, metadata !107, metadata !"_S_normalize_category", metadata !"_S_normalize_category", metadata !"_ZNSt6locale21_S_normalize_categoryEi", metadata !109, i32 317, metadata !773, i1 false, i1 false, i32 0, i32 0, null, i32 257, i1 false, null} ; [ DW_TAG_subprogram ]
!773 = metadata !{i32 589845, metadata !109, metadata !"", metadata !109, i32 0, i64 0, i64 0, i32 0, i32 0, i32 0, metadata !774, i32 0, i32 0} ; [ DW_TAG_subroutine_type ]
!774 = metadata !{metadata !223, metadata !223}
!775 = metadata !{i32 589870, i32 0, metadata !107, metadata !"_M_coalesce", metadata !"_M_coalesce", metadata !"_ZNSt6locale11_M_coalesceERKS_S1_i", metadata !109, i32 320, metadata !275, i1 false, i1 false, i32 0, i32 0, null, i32 257, i1 false, null} ; [ DW_TAG_subprogram ]
!776 = metadata !{i32 589866, metadata !107, null, metadata !109, i32 0, i64 0, i64 0, i64 0, i32 0, metadata !113} ; [ DW_TAG_friend ]
!777 = metadata !{i32 589866, metadata !107, null, metadata !109, i32 0, i64 0, i64 0, i64 0, i32 0, metadata !120} ; [ DW_TAG_friend ]
!778 = metadata !{i32 589870, i32 0, metadata !47, metadata !"register_callback", metadata !"register_callback", metadata !"_ZNSt8ios_base17register_callbackEPFvNS_5eventERS_iEi", metadata !3, i32 456, metadata !779, i1 false, i1 false, i32 0, i32 0, null, i32 256, i1 false, null} ; [ DW_TAG_subprogram ]
!779 = metadata !{i32 589845, metadata !3, metadata !"", metadata !3, i32 0, i64 0, i64 0, i32 0, i32 0, i32 0, metadata !780, i32 0, i32 0} ; [ DW_TAG_subroutine_type ]
!780 = metadata !{null, metadata !781, metadata !71, metadata !54}
!781 = metadata !{i32 589839, metadata !2, metadata !"", i32 0, i32 0, i64 64, i64 64, i64 0, i32 64, metadata !47} ; [ DW_TAG_pointer_type ]
!782 = metadata !{i32 589870, i32 0, metadata !47, metadata !"_M_call_callbacks", metadata !"_M_call_callbacks", metadata !"_ZNSt8ios_base17_M_call_callbacksENS_5eventE", metadata !3, i32 496, metadata !783, i1 false, i1 false, i32 0, i32 0, null, i32 258, i1 false, null} ; [ DW_TAG_subprogram ]
!783 = metadata !{i32 589845, metadata !3, metadata !"", metadata !3, i32 0, i64 0, i64 0, i32 0, i32 0, i32 0, metadata !784, i32 0, i32 0} ; [ DW_TAG_subroutine_type ]
!784 = metadata !{null, metadata !781, metadata !46}
!785 = metadata !{i32 589870, i32 0, metadata !47, metadata !"_M_dispose_callbacks", metadata !"_M_dispose_callbacks", metadata !"_ZNSt8ios_base20_M_dispose_callbacksEv", metadata !3, i32 499, metadata !786, i1 false, i1 false, i32 0, i32 0, null, i32 258, i1 false, null} ; [ DW_TAG_subprogram ]
!786 = metadata !{i32 589845, metadata !3, metadata !"", metadata !3, i32 0, i64 0, i64 0, i32 0, i32 0, i32 0, metadata !787, i32 0, i32 0} ; [ DW_TAG_subroutine_type ]
!787 = metadata !{null, metadata !781}
!788 = metadata !{i32 589870, i32 0, metadata !47, metadata !"_M_grow_words", metadata !"_M_grow_words", metadata !"_ZNSt8ios_base13_M_grow_wordsEib", metadata !3, i32 522, metadata !789, i1 false, i1 false, i32 0, i32 0, null, i32 258, i1 false, null} ; [ DW_TAG_subprogram ]
!789 = metadata !{i32 589845, metadata !3, metadata !"", metadata !3, i32 0, i64 0, i64 0, i32 0, i32 0, i32 0, metadata !790, i32 0, i32 0} ; [ DW_TAG_subroutine_type ]
!790 = metadata !{metadata !791, metadata !781, metadata !54, metadata !218}
!791 = metadata !{i32 589840, metadata !2, null, null, i32 0, i64 0, i64 0, i64 0, i32 0, metadata !91} ; [ DW_TAG_reference_type ]
!792 = metadata !{i32 589870, i32 0, metadata !47, metadata !"_M_init", metadata !"_M_init", metadata !"_ZNSt8ios_base7_M_initEv", metadata !3, i32 528, metadata !786, i1 false, i1 false, i32 0, i32 0, null, i32 258, i1 false, null} ; [ DW_TAG_subprogram ]
!793 = metadata !{i32 589870, i32 0, metadata !47, metadata !"flags", metadata !"flags", metadata !"_ZNKSt8ios_base5flagsEv", metadata !3, i32 554, metadata !794, i1 false, i1 false, i32 0, i32 0, null, i32 256, i1 false, null} ; [ DW_TAG_subprogram ]
!794 = metadata !{i32 589845, metadata !3, metadata !"", metadata !3, i32 0, i64 0, i64 0, i32 0, i32 0, i32 0, metadata !795, i32 0, i32 0} ; [ DW_TAG_subroutine_type ]
!795 = metadata !{metadata !61, metadata !781}
!796 = metadata !{i32 589870, i32 0, metadata !47, metadata !"flags", metadata !"flags", metadata !"_ZNSt8ios_base5flagsESt13_Ios_Fmtflags", metadata !3, i32 565, metadata !797, i1 false, i1 false, i32 0, i32 0, null, i32 256, i1 false, null} ; [ DW_TAG_subprogram ]
!797 = metadata !{i32 589845, metadata !3, metadata !"", metadata !3, i32 0, i64 0, i64 0, i32 0, i32 0, i32 0, metadata !798, i32 0, i32 0} ; [ DW_TAG_subroutine_type ]
!798 = metadata !{metadata !61, metadata !781, metadata !61}
!799 = metadata !{i32 589870, i32 0, metadata !47, metadata !"setf", metadata !"setf", metadata !"_ZNSt8ios_base4setfESt13_Ios_Fmtflags", metadata !3, i32 581, metadata !797, i1 false, i1 false, i32 0, i32 0, null, i32 256, i1 false, null} ; [ DW_TAG_subprogram ]
!800 = metadata !{i32 589870, i32 0, metadata !47, metadata !"setf", metadata !"setf", metadata !"_ZNSt8ios_base4setfESt13_Ios_FmtflagsS0_", metadata !3, i32 598, metadata !801, i1 false, i1 false, i32 0, i32 0, null, i32 256, i1 false, null} ; [ DW_TAG_subprogram ]
!801 = metadata !{i32 589845, metadata !3, metadata !"", metadata !3, i32 0, i64 0, i64 0, i32 0, i32 0, i32 0, metadata !802, i32 0, i32 0} ; [ DW_TAG_subroutine_type ]
!802 = metadata !{metadata !61, metadata !781, metadata !61, metadata !61}
!803 = metadata !{i32 589870, i32 0, metadata !47, metadata !"unsetf", metadata !"unsetf", metadata !"_ZNSt8ios_base6unsetfESt13_Ios_Fmtflags", metadata !3, i32 613, metadata !804, i1 false, i1 false, i32 0, i32 0, null, i32 256, i1 false, null} ; [ DW_TAG_subprogram ]
!804 = metadata !{i32 589845, metadata !3, metadata !"", metadata !3, i32 0, i64 0, i64 0, i32 0, i32 0, i32 0, metadata !805, i32 0, i32 0} ; [ DW_TAG_subroutine_type ]
!805 = metadata !{null, metadata !781, metadata !61}
!806 = metadata !{i32 589870, i32 0, metadata !47, metadata !"precision", metadata !"precision", metadata !"_ZNKSt8ios_base9precisionEv", metadata !3, i32 624, metadata !807, i1 false, i1 false, i32 0, i32 0, null, i32 256, i1 false, null} ; [ DW_TAG_subprogram ]
!807 = metadata !{i32 589845, metadata !3, metadata !"", metadata !3, i32 0, i64 0, i64 0, i32 0, i32 0, i32 0, metadata !808, i32 0, i32 0} ; [ DW_TAG_subroutine_type ]
!808 = metadata !{metadata !56, metadata !781}
!809 = metadata !{i32 589870, i32 0, metadata !47, metadata !"precision", metadata !"precision", metadata !"_ZNSt8ios_base9precisionEl", metadata !3, i32 633, metadata !810, i1 false, i1 false, i32 0, i32 0, null, i32 256, i1 false, null} ; [ DW_TAG_subprogram ]
!810 = metadata !{i32 589845, metadata !3, metadata !"", metadata !3, i32 0, i64 0, i64 0, i32 0, i32 0, i32 0, metadata !811, i32 0, i32 0} ; [ DW_TAG_subroutine_type ]
!811 = metadata !{metadata !56, metadata !781, metadata !56}
!812 = metadata !{i32 589870, i32 0, metadata !47, metadata !"width", metadata !"width", metadata !"_ZNKSt8ios_base5widthEv", metadata !3, i32 647, metadata !807, i1 false, i1 false, i32 0, i32 0, null, i32 256, i1 false, null} ; [ DW_TAG_subprogram ]
!813 = metadata !{i32 589870, i32 0, metadata !47, metadata !"width", metadata !"width", metadata !"_ZNSt8ios_base5widthEl", metadata !3, i32 656, metadata !810, i1 false, i1 false, i32 0, i32 0, null, i32 256, i1 false, null} ; [ DW_TAG_subprogram ]
!814 = metadata !{i32 589870, i32 0, metadata !47, metadata !"sync_with_stdio", metadata !"sync_with_stdio", metadata !"_ZNSt8ios_base15sync_with_stdioEb", metadata !3, i32 675, metadata !815, i1 false, i1 false, i32 0, i32 0, null, i32 256, i1 false, null} ; [ DW_TAG_subprogram ]
!815 = metadata !{i32 589845, metadata !3, metadata !"", metadata !3, i32 0, i64 0, i64 0, i32 0, i32 0, i32 0, metadata !816, i32 0, i32 0} ; [ DW_TAG_subroutine_type ]
!816 = metadata !{metadata !218, metadata !218}
!817 = metadata !{i32 589870, i32 0, metadata !47, metadata !"imbue", metadata !"imbue", metadata !"_ZNSt8ios_base5imbueERKSt6locale", metadata !3, i32 687, metadata !818, i1 false, i1 false, i32 0, i32 0, null, i32 256, i1 false, null} ; [ DW_TAG_subprogram ]
!818 = metadata !{i32 589845, metadata !3, metadata !"", metadata !3, i32 0, i64 0, i64 0, i32 0, i32 0, i32 0, metadata !819, i32 0, i32 0} ; [ DW_TAG_subroutine_type ]
!819 = metadata !{metadata !107, metadata !781, metadata !266}
!820 = metadata !{i32 589870, i32 0, metadata !47, metadata !"getloc", metadata !"getloc", metadata !"_ZNKSt8ios_base6getlocEv", metadata !3, i32 698, metadata !821, i1 false, i1 false, i32 0, i32 0, null, i32 256, i1 false, null} ; [ DW_TAG_subprogram ]
!821 = metadata !{i32 589845, metadata !3, metadata !"", metadata !3, i32 0, i64 0, i64 0, i32 0, i32 0, i32 0, metadata !822, i32 0, i32 0} ; [ DW_TAG_subroutine_type ]
!822 = metadata !{metadata !107, metadata !781}
!823 = metadata !{i32 589870, i32 0, metadata !47, metadata !"_M_getloc", metadata !"_M_getloc", metadata !"_ZNKSt8ios_base9_M_getlocEv", metadata !3, i32 709, metadata !824, i1 false, i1 false, i32 0, i32 0, null, i32 256, i1 false, null} ; [ DW_TAG_subprogram ]
!824 = metadata !{i32 589845, metadata !3, metadata !"", metadata !3, i32 0, i64 0, i64 0, i32 0, i32 0, i32 0, metadata !825, i32 0, i32 0} ; [ DW_TAG_subroutine_type ]
!825 = metadata !{metadata !266, metadata !781}
!826 = metadata !{i32 589870, i32 0, metadata !47, metadata !"xalloc", metadata !"xalloc", metadata !"_ZNSt8ios_base6xallocEv", metadata !3, i32 728, metadata !52, i1 false, i1 false, i32 0, i32 0, null, i32 256, i1 false, null} ; [ DW_TAG_subprogram ]
!827 = metadata !{i32 589870, i32 0, metadata !47, metadata !"iword", metadata !"iword", metadata !"_ZNSt8ios_base5iwordEi", metadata !3, i32 744, metadata !828, i1 false, i1 false, i32 0, i32 0, null, i32 256, i1 false, null} ; [ DW_TAG_subprogram ]
!828 = metadata !{i32 589845, metadata !3, metadata !"", metadata !3, i32 0, i64 0, i64 0, i32 0, i32 0, i32 0, metadata !829, i32 0, i32 0} ; [ DW_TAG_subroutine_type ]
!829 = metadata !{metadata !830, metadata !781, metadata !54}
!830 = metadata !{i32 589840, metadata !2, null, null, i32 0, i64 0, i64 0, i64 0, i32 0, metadata !58} ; [ DW_TAG_reference_type ]
!831 = metadata !{i32 589870, i32 0, metadata !47, metadata !"pword", metadata !"pword", metadata !"_ZNSt8ios_base5pwordEi", metadata !3, i32 765, metadata !832, i1 false, i1 false, i32 0, i32 0, null, i32 256, i1 false, null} ; [ DW_TAG_subprogram ]
!832 = metadata !{i32 589845, metadata !3, metadata !"", metadata !3, i32 0, i64 0, i64 0, i32 0, i32 0, i32 0, metadata !833, i32 0, i32 0} ; [ DW_TAG_subroutine_type ]
!833 = metadata !{metadata !834, metadata !781, metadata !54}
!834 = metadata !{i32 589840, metadata !2, null, null, i32 0, i64 0, i64 0, i64 0, i32 0, metadata !94} ; [ DW_TAG_reference_type ]
!835 = metadata !{i32 589870, i32 0, metadata !47, metadata !"~ios_base", metadata !"~ios_base", metadata !"", metadata !3, i32 781, metadata !786, i1 false, i1 false, i32 1, i32 0, metadata !47, i32 256, i1 false, null} ; [ DW_TAG_subprogram ]
!836 = metadata !{i32 589870, i32 0, metadata !47, metadata !"ios_base", metadata !"ios_base", metadata !"", metadata !3, i32 784, metadata !786, i1 false, i1 false, i32 0, i32 0, null, i32 258, i1 false, null} ; [ DW_TAG_subprogram ]
!837 = metadata !{i32 589870, i32 0, metadata !47, metadata !"ios_base", metadata !"ios_base", metadata !"", metadata !3, i32 789, metadata !838, i1 false, i1 false, i32 0, i32 0, null, i32 257, i1 false, null} ; [ DW_TAG_subprogram ]
!838 = metadata !{i32 589845, metadata !3, metadata !"", metadata !3, i32 0, i64 0, i64 0, i32 0, i32 0, i32 0, metadata !839, i32 0, i32 0} ; [ DW_TAG_subroutine_type ]
!839 = metadata !{null, metadata !781, metadata !840}
!840 = metadata !{i32 589840, metadata !2, null, null, i32 0, i64 0, i64 0, i64 0, i32 0, metadata !841} ; [ DW_TAG_reference_type ]
!841 = metadata !{i32 589862, metadata !2, metadata !"", null, i32 0, i64 0, i64 0, i64 0, i32 0, metadata !47} ; [ DW_TAG_const_type ]
!842 = metadata !{i32 589870, i32 0, metadata !47, metadata !"operator=", metadata !"operator=", metadata !"_ZNSt8ios_baseaSERKS_", metadata !3, i32 792, metadata !843, i1 false, i1 false, i32 0, i32 0, null, i32 257, i1 false, null} ; [ DW_TAG_subprogram ]
!843 = metadata !{i32 589845, metadata !3, metadata !"", metadata !3, i32 0, i64 0, i64 0, i32 0, i32 0, i32 0, metadata !844, i32 0, i32 0} ; [ DW_TAG_subroutine_type ]
!844 = metadata !{metadata !75, metadata !781, metadata !840}
!845 = metadata !{metadata !846, metadata !847, metadata !848}
!846 = metadata !{i32 589864, metadata !"erase_event", i64 0} ; [ DW_TAG_enumerator ]
!847 = metadata !{i32 589864, metadata !"imbue_event", i64 1} ; [ DW_TAG_enumerator ]
!848 = metadata !{i32 589864, metadata !"copyfmt_event", i64 2} ; [ DW_TAG_enumerator ]
!849 = metadata !{i32 589876, i32 0, metadata !47, metadata !"boolalpha", metadata !"boolalpha", metadata !"boolalpha", metadata !3, i32 265, metadata !850, i32 1, i32 1, i32 1} ; [ DW_TAG_variable ]
!850 = metadata !{i32 589862, metadata !2, metadata !"", null, i32 0, i64 0, i64 0, i64 0, i32 0, metadata !61} ; [ DW_TAG_const_type ]
!851 = metadata !{i32 589876, i32 0, metadata !47, metadata !"dec", metadata !"dec", metadata !"dec", metadata !3, i32 268, metadata !850, i32 1, i32 1, i32 2} ; [ DW_TAG_variable ]
!852 = metadata !{i32 589876, i32 0, metadata !47, metadata !"fixed", metadata !"fixed", metadata !"fixed", metadata !3, i32 271, metadata !850, i32 1, i32 1, i32 4} ; [ DW_TAG_variable ]
!853 = metadata !{i32 589876, i32 0, metadata !47, metadata !"hex", metadata !"hex", metadata !"hex", metadata !3, i32 274, metadata !850, i32 1, i32 1, i32 8} ; [ DW_TAG_variable ]
!854 = metadata !{i32 589876, i32 0, metadata !47, metadata !"internal", metadata !"internal", metadata !"internal", metadata !3, i32 279, metadata !850, i32 1, i32 1, i32 16} ; [ DW_TAG_variable ]
!855 = metadata !{i32 589876, i32 0, metadata !47, metadata !"left", metadata !"left", metadata !"left", metadata !3, i32 283, metadata !850, i32 1, i32 1, i32 32} ; [ DW_TAG_variable ]
!856 = metadata !{i32 589876, i32 0, metadata !47, metadata !"oct", metadata !"oct", metadata !"oct", metadata !3, i32 286, metadata !850, i32 1, i32 1, i32 64} ; [ DW_TAG_variable ]
!857 = metadata !{i32 589876, i32 0, metadata !47, metadata !"right", metadata !"right", metadata !"right", metadata !3, i32 290, metadata !850, i32 1, i32 1, i32 128} ; [ DW_TAG_variable ]
!858 = metadata !{i32 589876, i32 0, metadata !47, metadata !"scientific", metadata !"scientific", metadata !"scientific", metadata !3, i32 293, metadata !850, i32 1, i32 1, i32 256} ; [ DW_TAG_variable ]
!859 = metadata !{i32 589876, i32 0, metadata !47, metadata !"showbase", metadata !"showbase", metadata !"showbase", metadata !3, i32 297, metadata !850, i32 1, i32 1, i32 512} ; [ DW_TAG_variable ]
!860 = metadata !{i32 589876, i32 0, metadata !47, metadata !"showpoint", metadata !"showpoint", metadata !"showpoint", metadata !3, i32 301, metadata !850, i32 1, i32 1, i32 1024} ; [ DW_TAG_variable ]
!861 = metadata !{i32 589876, i32 0, metadata !47, metadata !"showpos", metadata !"showpos", metadata !"showpos", metadata !3, i32 304, metadata !850, i32 1, i32 1, i32 2048} ; [ DW_TAG_variable ]
!862 = metadata !{i32 589876, i32 0, metadata !47, metadata !"skipws", metadata !"skipws", metadata !"skipws", metadata !3, i32 307, metadata !850, i32 1, i32 1, i32 4096} ; [ DW_TAG_variable ]
!863 = metadata !{i32 589876, i32 0, metadata !47, metadata !"unitbuf", metadata !"unitbuf", metadata !"unitbuf", metadata !3, i32 310, metadata !850, i32 1, i32 1, i32 8192} ; [ DW_TAG_variable ]
!864 = metadata !{i32 589876, i32 0, metadata !47, metadata !"uppercase", metadata !"uppercase", metadata !"uppercase", metadata !3, i32 314, metadata !850, i32 1, i32 1, i32 16384} ; [ DW_TAG_variable ]
!865 = metadata !{i32 589876, i32 0, metadata !47, metadata !"adjustfield", metadata !"adjustfield", metadata !"adjustfield", metadata !3, i32 317, metadata !850, i32 1, i32 1, i32 176} ; [ DW_TAG_variable ]
!866 = metadata !{i32 589876, i32 0, metadata !47, metadata !"basefield", metadata !"basefield", metadata !"basefield", metadata !3, i32 320, metadata !850, i32 1, i32 1, i32 74} ; [ DW_TAG_variable ]
!867 = metadata !{i32 589876, i32 0, metadata !47, metadata !"floatfield", metadata !"floatfield", metadata !"floatfield", metadata !3, i32 323, metadata !850, i32 1, i32 1, i32 260} ; [ DW_TAG_variable ]
!868 = metadata !{i32 589876, i32 0, metadata !47, metadata !"badbit", metadata !"badbit", metadata !"badbit", metadata !3, i32 341, metadata !869, i32 1, i32 1, i32 1} ; [ DW_TAG_variable ]
!869 = metadata !{i32 589862, metadata !2, metadata !"", null, i32 0, i64 0, i64 0, i64 0, i32 0, metadata !63} ; [ DW_TAG_const_type ]
!870 = metadata !{i32 589876, i32 0, metadata !47, metadata !"eofbit", metadata !"eofbit", metadata !"eofbit", metadata !3, i32 344, metadata !869, i32 1, i32 1, i32 2} ; [ DW_TAG_variable ]
!871 = metadata !{i32 589876, i32 0, metadata !47, metadata !"failbit", metadata !"failbit", metadata !"failbit", metadata !3, i32 349, metadata !869, i32 1, i32 1, i32 4} ; [ DW_TAG_variable ]
!872 = metadata !{i32 589876, i32 0, metadata !47, metadata !"goodbit", metadata !"goodbit", metadata !"goodbit", metadata !3, i32 352, metadata !869, i32 1, i32 1, i32 0} ; [ DW_TAG_variable ]
!873 = metadata !{i32 589876, i32 0, metadata !47, metadata !"app", metadata !"app", metadata !"app", metadata !3, i32 371, metadata !874, i32 1, i32 1, i32 1} ; [ DW_TAG_variable ]
!874 = metadata !{i32 589862, metadata !2, metadata !"", null, i32 0, i64 0, i64 0, i64 0, i32 0, metadata !875} ; [ DW_TAG_const_type ]
!875 = metadata !{i32 589846, metadata !1, metadata !"openmode", metadata !3, i32 368, i64 0, i64 0, i64 0, i32 0, metadata !31} ; [ DW_TAG_typedef ]
!876 = metadata !{i32 589876, i32 0, metadata !47, metadata !"ate", metadata !"ate", metadata !"ate", metadata !3, i32 374, metadata !874, i32 1, i32 1, i32 2} ; [ DW_TAG_variable ]
!877 = metadata !{i32 589876, i32 0, metadata !47, metadata !"binary", metadata !"binary", metadata !"binary", metadata !3, i32 379, metadata !874, i32 1, i32 1, i32 4} ; [ DW_TAG_variable ]
!878 = metadata !{i32 589876, i32 0, metadata !47, metadata !"in", metadata !"in", metadata !"in", metadata !3, i32 382, metadata !874, i32 1, i32 1, i32 8} ; [ DW_TAG_variable ]
!879 = metadata !{i32 589876, i32 0, metadata !47, metadata !"out", metadata !"out", metadata !"out", metadata !3, i32 385, metadata !874, i32 1, i32 1, i32 16} ; [ DW_TAG_variable ]
!880 = metadata !{i32 589876, i32 0, metadata !47, metadata !"trunc", metadata !"trunc", metadata !"trunc", metadata !3, i32 388, metadata !874, i32 1, i32 1, i32 32} ; [ DW_TAG_variable ]
!881 = metadata !{i32 589876, i32 0, metadata !47, metadata !"beg", metadata !"beg", metadata !"beg", metadata !3, i32 403, metadata !882, i32 1, i32 1, i32 0} ; [ DW_TAG_variable ]
!882 = metadata !{i32 589862, metadata !2, metadata !"", null, i32 0, i64 0, i64 0, i64 0, i32 0, metadata !883} ; [ DW_TAG_const_type ]
!883 = metadata !{i32 589846, metadata !1, metadata !"seekdir", metadata !3, i32 400, i64 0, i64 0, i64 0, i32 0, metadata !40} ; [ DW_TAG_typedef ]
!884 = metadata !{i32 589876, i32 0, metadata !47, metadata !"cur", metadata !"cur", metadata !"cur", metadata !3, i32 406, metadata !882, i32 1, i32 1, i32 1} ; [ DW_TAG_variable ]
!885 = metadata !{i32 589876, i32 0, metadata !47, metadata !"end", metadata !"end", metadata !"end", metadata !3, i32 409, metadata !882, i32 1, i32 1, i32 2} ; [ DW_TAG_variable ]
!886 = metadata !{i32 589876, i32 0, metadata !107, metadata !"none", metadata !"none", metadata !"none", metadata !109, i32 96, metadata !887, i32 1, i32 1, i32 0} ; [ DW_TAG_variable ]
!887 = metadata !{i32 589862, metadata !2, metadata !"", null, i32 0, i64 0, i64 0, i64 0, i32 0, metadata !223} ; [ DW_TAG_const_type ]
!888 = metadata !{i32 589876, i32 0, metadata !107, metadata !"ctype", metadata !"ctype", metadata !"ctype", metadata !109, i32 97, metadata !887, i32 1, i32 1, i32 1} ; [ DW_TAG_variable ]
!889 = metadata !{i32 589876, i32 0, metadata !107, metadata !"numeric", metadata !"numeric", metadata !"numeric", metadata !109, i32 98, metadata !887, i32 1, i32 1, i32 2} ; [ DW_TAG_variable ]
!890 = metadata !{i32 589876, i32 0, metadata !107, metadata !"collate", metadata !"collate", metadata !"collate", metadata !109, i32 99, metadata !887, i32 1, i32 1, i32 4} ; [ DW_TAG_variable ]
!891 = metadata !{i32 589876, i32 0, metadata !107, metadata !"time", metadata !"time", metadata !"time", metadata !109, i32 100, metadata !887, i32 1, i32 1, i32 8} ; [ DW_TAG_variable ]
!892 = metadata !{i32 589876, i32 0, metadata !107, metadata !"monetary", metadata !"monetary", metadata !"monetary", metadata !109, i32 101, metadata !887, i32 1, i32 1, i32 16} ; [ DW_TAG_variable ]
!893 = metadata !{i32 589876, i32 0, metadata !107, metadata !"messages", metadata !"messages", metadata !"messages", metadata !109, i32 102, metadata !887, i32 1, i32 1, i32 32} ; [ DW_TAG_variable ]
!894 = metadata !{i32 589876, i32 0, metadata !107, metadata !"all", metadata !"all", metadata !"all", metadata !109, i32 103, metadata !887, i32 1, i32 1, i32 63} ; [ DW_TAG_variable ]
!895 = metadata !{i32 589876, i32 0, metadata !287, metadata !"npos", metadata !"npos", metadata !"npos", metadata !291, i32 269, metadata !896, i32 1, i32 1, i64 -1} ; [ DW_TAG_variable ]
!896 = metadata !{i32 589862, metadata !2, metadata !"", null, i32 0, i64 0, i64 0, i64 0, i32 0, metadata !377} ; [ DW_TAG_const_type ]
!897 = metadata !{i32 589876, i32 0, metadata !898, metadata !"__ioinit", metadata !"__ioinit", metadata !"_ZStL8__ioinit", metadata !899, i32 71, metadata !900, i32 1, i32 1, %"class.std::ios_base::Init"* @_ZStL8__ioinit} ; [ DW_TAG_variable ]
!898 = metadata !{i32 589881, metadata !2, metadata !"std", metadata !899, i32 42} ; [ DW_TAG_namespace ]
!899 = metadata !{i32 589865, metadata !"/usr/include/c++/4.4/iostream", metadata !"/home/brian/llvm/tools/clang-2.9", metadata !2} ; [ DW_TAG_file_type ]
!900 = metadata !{i32 589826, metadata !47, metadata !"Init", metadata !3, i32 536, i64 8, i64 8, i32 0, i32 0, null, metadata !901, i32 0, null, metadata !89} ; [ DW_TAG_class_type ]
!901 = metadata !{metadata !902, metadata !906, metadata !907}
!902 = metadata !{i32 589870, i32 0, metadata !900, metadata !"Init", metadata !"Init", metadata !"", metadata !3, i32 540, metadata !903, i1 false, i1 false, i32 0, i32 0, null, i32 256, i1 false, null} ; [ DW_TAG_subprogram ]
!903 = metadata !{i32 589845, metadata !3, metadata !"", metadata !3, i32 0, i64 0, i64 0, i32 0, i32 0, i32 0, metadata !904, i32 0, i32 0} ; [ DW_TAG_subroutine_type ]
!904 = metadata !{null, metadata !905}
!905 = metadata !{i32 589839, metadata !2, metadata !"", i32 0, i32 0, i64 64, i64 64, i64 0, i32 64, metadata !900} ; [ DW_TAG_pointer_type ]
!906 = metadata !{i32 589870, i32 0, metadata !900, metadata !"~Init", metadata !"~Init", metadata !"", metadata !3, i32 541, metadata !903, i1 false, i1 false, i32 0, i32 0, null, i32 256, i1 false, null} ; [ DW_TAG_subprogram ]
!907 = metadata !{i32 589866, metadata !900, null, metadata !3, i32 0, i64 0, i64 0, i64 0, i32 0, metadata !47} ; [ DW_TAG_friend ]
!908 = metadata !{i32 589870, i32 0, metadata !909, metadata !"main", metadata !"main", metadata !"", metadata !909, i32 39, metadata !52, i1 false, i1 true, i32 0, i32 0, i32 0, i32 256, i1 false, i32 ()* @main} ; [ DW_TAG_subprogram ]
!909 = metadata !{i32 589865, metadata !"/home/brian/llvm/lib/Transforms/cs380c-devirtualization/Test.cpp", metadata !"/home/brian/llvm/tools/clang-2.9", metadata !2} ; [ DW_TAG_file_type ]
!910 = metadata !{i32 589870, i32 0, metadata !911, metadata !"A", metadata !"A", metadata !"", metadata !909, i32 13, metadata !931, i1 false, i1 false, i32 0, i32 0, null, i32 256, i1 false, null} ; [ DW_TAG_subprogram ]
!911 = metadata !{i32 589826, metadata !2, metadata !"A", metadata !909, i32 10, i64 128, i64 64, i32 0, i32 0, null, metadata !912, i32 0, metadata !911, metadata !89} ; [ DW_TAG_class_type ]
!912 = metadata !{metadata !913, metadata !914, metadata !910, metadata !915, metadata !919, metadata !922, metadata !925, metadata !928}
!913 = metadata !{i32 589837, metadata !909, metadata !"_vptr$A", metadata !909, i32 0, i64 64, i64 0, i64 0, i32 0, metadata !50} ; [ DW_TAG_member ]
!914 = metadata !{i32 589837, metadata !909, metadata !"x", metadata !909, i32 12, i64 32, i64 32, i64 64, i32 0, metadata !54} ; [ DW_TAG_member ]
!915 = metadata !{i32 589870, i32 0, metadata !911, metadata !"foo", metadata !"foo", metadata !"_ZN1A3fooEv", metadata !909, i32 14, metadata !916, i1 false, i1 false, i32 1, i32 0, metadata !911, i32 256, i1 false, null} ; [ DW_TAG_subprogram ]
!916 = metadata !{i32 589845, metadata !909, metadata !"", metadata !909, i32 0, i64 0, i64 0, i32 0, i32 0, i32 0, metadata !917, i32 0, i32 0} ; [ DW_TAG_subroutine_type ]
!917 = metadata !{metadata !164, metadata !918}
!918 = metadata !{i32 589839, metadata !2, metadata !"", i32 0, i32 0, i64 64, i64 64, i64 0, i32 64, metadata !911} ; [ DW_TAG_pointer_type ]
!919 = metadata !{i32 589870, i32 0, metadata !911, metadata !"foo", metadata !"foo", metadata !"_ZN1A3fooEc", metadata !909, i32 15, metadata !920, i1 false, i1 false, i32 1, i32 1, metadata !911, i32 256, i1 false, null} ; [ DW_TAG_subprogram ]
!920 = metadata !{i32 589845, metadata !909, metadata !"", metadata !909, i32 0, i64 0, i64 0, i32 0, i32 0, i32 0, metadata !921, i32 0, i32 0} ; [ DW_TAG_subroutine_type ]
!921 = metadata !{metadata !164, metadata !918, metadata !164}
!922 = metadata !{i32 589870, i32 0, metadata !911, metadata !"foo", metadata !"foo", metadata !"_ZN1A3fooEi", metadata !909, i32 16, metadata !923, i1 false, i1 false, i32 1, i32 2, metadata !911, i32 256, i1 false, null} ; [ DW_TAG_subprogram ]
!923 = metadata !{i32 589845, metadata !909, metadata !"", metadata !909, i32 0, i64 0, i64 0, i32 0, i32 0, i32 0, metadata !924, i32 0, i32 0} ; [ DW_TAG_subroutine_type ]
!924 = metadata !{metadata !54, metadata !918, metadata !54}
!925 = metadata !{i32 589870, i32 0, metadata !911, metadata !"nonvirt", metadata !"nonvirt", metadata !"_ZN1A7nonvirtEv", metadata !909, i32 17, metadata !926, i1 false, i1 false, i32 0, i32 0, null, i32 256, i1 false, null} ; [ DW_TAG_subprogram ]
!926 = metadata !{i32 589845, metadata !909, metadata !"", metadata !909, i32 0, i64 0, i64 0, i32 0, i32 0, i32 0, metadata !927, i32 0, i32 0} ; [ DW_TAG_subroutine_type ]
!927 = metadata !{null, metadata !918}
!928 = metadata !{i32 589870, i32 0, metadata !911, metadata !"operator+", metadata !"operator+", metadata !"_ZN1AplES_", metadata !909, i32 18, metadata !929, i1 false, i1 false, i32 1, i32 3, metadata !911, i32 256, i1 false, null} ; [ DW_TAG_subprogram ]
!929 = metadata !{i32 589845, metadata !909, metadata !"", metadata !909, i32 0, i64 0, i64 0, i32 0, i32 0, i32 0, metadata !930, i32 0, i32 0} ; [ DW_TAG_subroutine_type ]
!930 = metadata !{metadata !54, metadata !918, metadata !911}
!931 = metadata !{i32 589845, metadata !909, metadata !"", metadata !909, i32 0, i64 0, i64 0, i32 0, i32 0, i32 0, metadata !932, i32 0, i32 0} ; [ DW_TAG_subroutine_type ]
!932 = metadata !{null, metadata !918, metadata !54}
!933 = metadata !{i32 589870, i32 0, metadata !934, metadata !"goo", metadata !"goo", metadata !"_ZN2A23gooEv", metadata !909, i32 22, metadata !941, i1 false, i1 false, i32 1, i32 0, metadata !934, i32 256, i1 false, null} ; [ DW_TAG_subprogram ]
!934 = metadata !{i32 589826, metadata !2, metadata !"A2", metadata !909, i32 20, i64 64, i64 64, i32 0, i32 0, null, metadata !935, i32 0, metadata !934, metadata !89} ; [ DW_TAG_class_type ]
!935 = metadata !{metadata !936, metadata !933, metadata !937}
!936 = metadata !{i32 589837, metadata !909, metadata !"_vptr$A2", metadata !909, i32 0, i64 64, i64 0, i64 0, i32 0, metadata !50} ; [ DW_TAG_member ]
!937 = metadata !{i32 589870, i32 0, metadata !934, metadata !"A2", metadata !"A2", metadata !"", metadata !909, i32 20, metadata !938, i1 false, i1 false, i32 0, i32 0, null, i32 320, i1 false, null} ; [ DW_TAG_subprogram ]
!938 = metadata !{i32 589845, metadata !909, metadata !"", metadata !909, i32 0, i64 0, i64 0, i32 0, i32 0, i32 0, metadata !939, i32 0, i32 0} ; [ DW_TAG_subroutine_type ]
!939 = metadata !{null, metadata !940}
!940 = metadata !{i32 589839, metadata !2, metadata !"", i32 0, i32 0, i64 64, i64 64, i64 0, i32 64, metadata !934} ; [ DW_TAG_pointer_type ]
!941 = metadata !{i32 589845, metadata !909, metadata !"", metadata !909, i32 0, i64 0, i64 0, i32 0, i32 0, i32 0, metadata !942, i32 0, i32 0} ; [ DW_TAG_subroutine_type ]
!942 = metadata !{metadata !54, metadata !940}
!943 = metadata !{i32 589870, i32 0, metadata !944, metadata !"B", metadata !"B", metadata !"", metadata !909, i32 26, metadata !964, i1 false, i1 false, i32 0, i32 0, null, i32 256, i1 false, null} ; [ DW_TAG_subprogram ]
!944 = metadata !{i32 589826, metadata !2, metadata !"B", metadata !909, i32 24, i64 192, i64 64, i32 0, i32 0, null, metadata !945, i32 0, metadata !911, metadata !89} ; [ DW_TAG_class_type ]
!945 = metadata !{metadata !946, metadata !947, metadata !943, metadata !948, metadata !952, metadata !955, metadata !958, metadata !961}
!946 = metadata !{i32 589852, metadata !944, null, metadata !909, i32 0, i64 0, i64 0, i64 0, i32 0, metadata !911} ; [ DW_TAG_inheritance ]
!947 = metadata !{i32 589852, metadata !944, null, metadata !909, i32 0, i64 0, i64 0, i64 128, i32 0, metadata !934} ; [ DW_TAG_inheritance ]
!948 = metadata !{i32 589870, i32 0, metadata !944, metadata !"B", metadata !"B", metadata !"", metadata !909, i32 27, metadata !949, i1 false, i1 false, i32 0, i32 0, null, i32 256, i1 false, null} ; [ DW_TAG_subprogram ]
!949 = metadata !{i32 589845, metadata !909, metadata !"", metadata !909, i32 0, i64 0, i64 0, i32 0, i32 0, i32 0, metadata !950, i32 0, i32 0} ; [ DW_TAG_subroutine_type ]
!950 = metadata !{null, metadata !951}
!951 = metadata !{i32 589839, metadata !2, metadata !"", i32 0, i32 0, i64 64, i64 64, i64 0, i32 64, metadata !944} ; [ DW_TAG_pointer_type ]
!952 = metadata !{i32 589870, i32 0, metadata !944, metadata !"foo", metadata !"foo", metadata !"_ZN1B3fooEv", metadata !909, i32 28, metadata !953, i1 false, i1 false, i32 1, i32 0, metadata !944, i32 256, i1 false, null} ; [ DW_TAG_subprogram ]
!953 = metadata !{i32 589845, metadata !909, metadata !"", metadata !909, i32 0, i64 0, i64 0, i32 0, i32 0, i32 0, metadata !954, i32 0, i32 0} ; [ DW_TAG_subroutine_type ]
!954 = metadata !{metadata !164, metadata !951}
!955 = metadata !{i32 589870, i32 0, metadata !944, metadata !"foo", metadata !"foo", metadata !"_ZN1B3fooEc", metadata !909, i32 29, metadata !956, i1 false, i1 false, i32 1, i32 1, metadata !944, i32 256, i1 false, null} ; [ DW_TAG_subprogram ]
!956 = metadata !{i32 589845, metadata !909, metadata !"", metadata !909, i32 0, i64 0, i64 0, i32 0, i32 0, i32 0, metadata !957, i32 0, i32 0} ; [ DW_TAG_subroutine_type ]
!957 = metadata !{metadata !164, metadata !951, metadata !164}
!958 = metadata !{i32 589870, i32 0, metadata !944, metadata !"foo", metadata !"foo", metadata !"_ZN1B3fooEi", metadata !909, i32 30, metadata !959, i1 false, i1 false, i32 1, i32 2, metadata !944, i32 256, i1 false, null} ; [ DW_TAG_subprogram ]
!959 = metadata !{i32 589845, metadata !909, metadata !"", metadata !909, i32 0, i64 0, i64 0, i32 0, i32 0, i32 0, metadata !960, i32 0, i32 0} ; [ DW_TAG_subroutine_type ]
!960 = metadata !{metadata !54, metadata !951, metadata !54}
!961 = metadata !{i32 589870, i32 0, metadata !944, metadata !"goo", metadata !"goo", metadata !"_ZN1B3gooEv", metadata !909, i32 31, metadata !962, i1 false, i1 false, i32 1, i32 4, metadata !944, i32 256, i1 false, null} ; [ DW_TAG_subprogram ]
!962 = metadata !{i32 589845, metadata !909, metadata !"", metadata !909, i32 0, i64 0, i64 0, i32 0, i32 0, i32 0, metadata !963, i32 0, i32 0} ; [ DW_TAG_subroutine_type ]
!963 = metadata !{metadata !54, metadata !951}
!964 = metadata !{i32 589845, metadata !909, metadata !"", metadata !909, i32 0, i64 0, i64 0, i32 0, i32 0, i32 0, metadata !965, i32 0, i32 0} ; [ DW_TAG_subroutine_type ]
!965 = metadata !{null, metadata !951, metadata !54}
!966 = metadata !{i32 589870, i32 0, metadata !967, metadata !"C", metadata !"C", metadata !"", metadata !909, i32 33, metadata !970, i1 false, i1 false, i32 0, i32 0, null, i32 320, i1 false, null} ; [ DW_TAG_subprogram ]
!967 = metadata !{i32 589826, metadata !2, metadata !"C", metadata !909, i32 33, i64 192, i64 64, i32 0, i32 0, null, metadata !968, i32 0, metadata !911, metadata !89} ; [ DW_TAG_class_type ]
!968 = metadata !{metadata !969, metadata !966}
!969 = metadata !{i32 589852, metadata !967, null, metadata !909, i32 0, i64 0, i64 0, i64 0, i32 0, metadata !944} ; [ DW_TAG_inheritance ]
!970 = metadata !{i32 589845, metadata !909, metadata !"", metadata !909, i32 0, i64 0, i64 0, i32 0, i32 0, i32 0, metadata !971, i32 0, i32 0} ; [ DW_TAG_subroutine_type ]
!971 = metadata !{null, metadata !972}
!972 = metadata !{i32 589839, metadata !2, metadata !"", i32 0, i32 0, i64 64, i64 64, i64 0, i32 64, metadata !967} ; [ DW_TAG_pointer_type ]
!973 = metadata !{i32 589870, i32 0, metadata !974, metadata !"foo", metadata !"foo", metadata !"_ZN1D3fooEv", metadata !909, i32 37, metadata !981, i1 false, i1 false, i32 1, i32 0, metadata !974, i32 256, i1 false, null} ; [ DW_TAG_subprogram ]
!974 = metadata !{i32 589826, metadata !2, metadata !"D", metadata !909, i32 35, i64 192, i64 64, i32 0, i32 0, null, metadata !975, i32 0, metadata !911, metadata !89} ; [ DW_TAG_class_type ]
!975 = metadata !{metadata !976, metadata !973, metadata !977}
!976 = metadata !{i32 589852, metadata !974, null, metadata !909, i32 0, i64 0, i64 0, i64 0, i32 0, metadata !967} ; [ DW_TAG_inheritance ]
!977 = metadata !{i32 589870, i32 0, metadata !974, metadata !"D", metadata !"D", metadata !"", metadata !909, i32 35, metadata !978, i1 false, i1 false, i32 0, i32 0, null, i32 320, i1 false, null} ; [ DW_TAG_subprogram ]
!978 = metadata !{i32 589845, metadata !909, metadata !"", metadata !909, i32 0, i64 0, i64 0, i32 0, i32 0, i32 0, metadata !979, i32 0, i32 0} ; [ DW_TAG_subroutine_type ]
!979 = metadata !{null, metadata !980}
!980 = metadata !{i32 589839, metadata !2, metadata !"", i32 0, i32 0, i64 64, i64 64, i64 0, i32 64, metadata !974} ; [ DW_TAG_pointer_type ]
!981 = metadata !{i32 589845, metadata !909, metadata !"", metadata !909, i32 0, i64 0, i64 0, i32 0, i32 0, i32 0, metadata !982, i32 0, i32 0} ; [ DW_TAG_subroutine_type ]
!982 = metadata !{metadata !164, metadata !980}
!983 = metadata !{i32 589870, i32 0, metadata !984, metadata !"g", metadata !"g", metadata !"_ZN1Z1gEv", metadata !909, i32 6, metadata !991, i1 false, i1 false, i32 1, i32 0, metadata !984, i32 256, i1 false, null} ; [ DW_TAG_subprogram ]
!984 = metadata !{i32 589826, metadata !2, metadata !"Z", metadata !909, i32 4, i64 64, i64 64, i32 0, i32 0, null, metadata !985, i32 0, metadata !984, metadata !89} ; [ DW_TAG_class_type ]
!985 = metadata !{metadata !986, metadata !983, metadata !987}
!986 = metadata !{i32 589837, metadata !909, metadata !"_vptr$Z", metadata !909, i32 0, i64 64, i64 0, i64 0, i32 0, metadata !50} ; [ DW_TAG_member ]
!987 = metadata !{i32 589870, i32 0, metadata !984, metadata !"Z", metadata !"Z", metadata !"", metadata !909, i32 8, metadata !988, i1 false, i1 false, i32 0, i32 0, null, i32 257, i1 false, null} ; [ DW_TAG_subprogram ]
!988 = metadata !{i32 589845, metadata !909, metadata !"", metadata !909, i32 0, i64 0, i64 0, i32 0, i32 0, i32 0, metadata !989, i32 0, i32 0} ; [ DW_TAG_subroutine_type ]
!989 = metadata !{null, metadata !990}
!990 = metadata !{i32 589839, metadata !2, metadata !"", i32 0, i32 0, i64 64, i64 64, i64 0, i32 64, metadata !984} ; [ DW_TAG_pointer_type ]
!991 = metadata !{i32 589845, metadata !909, metadata !"", metadata !909, i32 0, i64 0, i64 0, i32 0, i32 0, i32 0, metadata !992, i32 0, i32 0} ; [ DW_TAG_subroutine_type ]
!992 = metadata !{metadata !164, metadata !990}
!993 = metadata !{i32 589870, i32 0, metadata !909, metadata !"foo", metadata !"foo", metadata !"_ZN1A3fooEi", metadata !909, i32 16, metadata !52, i1 false, i1 true, i32 0, i32 0, i32 0, i32 256, i1 false, i32 (%class.A*, i32)* @_ZN1A3fooEi} ; [ DW_TAG_subprogram ]
!994 = metadata !{i32 589870, i32 0, metadata !909, metadata !"foo", metadata !"foo", metadata !"_ZN1A3fooEv", metadata !909, i32 14, metadata !995, i1 false, i1 true, i32 0, i32 0, i32 0, i32 256, i1 false, i8 (%class.A*)* @_ZN1A3fooEv} ; [ DW_TAG_subprogram ]
!995 = metadata !{i32 589845, metadata !909, metadata !"", metadata !909, i32 0, i64 0, i64 0, i32 0, i32 0, i32 0, metadata !996, i32 0, i32 0} ; [ DW_TAG_subroutine_type ]
!996 = metadata !{metadata !164}
!997 = metadata !{i32 589870, i32 0, metadata !909, metadata !"foo", metadata !"foo", metadata !"_ZN1B3fooEi", metadata !909, i32 30, metadata !52, i1 false, i1 true, i32 0, i32 0, i32 0, i32 256, i1 false, i32 (%class.B*, i32)* @_ZN1B3fooEi} ; [ DW_TAG_subprogram ]
!998 = metadata !{i32 589870, i32 0, metadata !909, metadata !"foo", metadata !"foo", metadata !"_ZN1B3fooEv", metadata !909, i32 28, metadata !995, i1 false, i1 true, i32 0, i32 0, i32 0, i32 256, i1 false, i8 (%class.B*)* @_ZN1B3fooEv} ; [ DW_TAG_subprogram ]
!999 = metadata !{i32 589870, i32 0, metadata !909, metadata !"foo", metadata !"foo", metadata !"_ZN1D3fooEv", metadata !909, i32 37, metadata !995, i1 false, i1 true, i32 0, i32 0, i32 0, i32 256, i1 false, i8 (%class.C*)* @_ZN1D3fooEv} ; [ DW_TAG_subprogram ]
!1000 = metadata !{i32 589870, i32 0, metadata !909, metadata !"D", metadata !"D", metadata !"_ZN1DC1Ev", metadata !909, i32 35, metadata !1001, i1 false, i1 true, i32 0, i32 0, i32 0, i32 320, i1 false, void (%class.C*)* @_ZN1DC1Ev} ; [ DW_TAG_subprogram ]
!1001 = metadata !{i32 589845, metadata !3, metadata !"", metadata !3, i32 0, i64 0, i64 0, i32 0, i32 0, i32 0, metadata !126, i32 0, i32 0} ; [ DW_TAG_subroutine_type ]
!1002 = metadata !{i32 589870, i32 0, metadata !909, metadata !"D", metadata !"D", metadata !"_ZN1DC2Ev", metadata !909, i32 35, metadata !1001, i1 false, i1 true, i32 0, i32 0, i32 0, i32 320, i1 false, void (%class.C*)* @_ZN1DC2Ev} ; [ DW_TAG_subprogram ]
!1003 = metadata !{i32 589870, i32 0, metadata !909, metadata !"goo", metadata !"goo", metadata !"_ZN1B3gooEv", metadata !909, i32 31, metadata !52, i1 false, i1 true, i32 0, i32 0, i32 0, i32 256, i1 false, i32 (%class.B*)* @_ZN1B3gooEv} ; [ DW_TAG_subprogram ]
!1004 = metadata !{i32 589870, i32 0, metadata !909, metadata !"operator+", metadata !"operator+", metadata !"_ZN1AplES_", metadata !909, i32 18, metadata !52, i1 false, i1 true, i32 0, i32 0, i32 0, i32 256, i1 false, i32 (%class.A*, %class.A*)* @_ZN1AplES_} ; [ DW_TAG_subprogram ]
!1005 = metadata !{i32 589870, i32 0, metadata !909, metadata !"foo", metadata !"foo", metadata !"_ZN1B3fooEc", metadata !909, i32 29, metadata !995, i1 false, i1 true, i32 0, i32 0, i32 0, i32 256, i1 false, i8 (%class.B*, i8)* @_ZN1B3fooEc} ; [ DW_TAG_subprogram ]
!1006 = metadata !{i32 589870, i32 0, metadata !909, metadata !"C", metadata !"C", metadata !"_ZN1CC2Ev", metadata !909, i32 33, metadata !1001, i1 false, i1 true, i32 0, i32 0, i32 0, i32 320, i1 false, void (%class.C*)* @_ZN1CC2Ev} ; [ DW_TAG_subprogram ]
!1007 = metadata !{i32 589870, i32 0, metadata !909, metadata !"B", metadata !"B", metadata !"_ZN1BC2Ev", metadata !909, i32 27, metadata !1001, i1 false, i1 true, i32 0, i32 0, i32 0, i32 256, i1 false, void (%class.B*)* @_ZN1BC2Ev} ; [ DW_TAG_subprogram ]
!1008 = metadata !{i32 589870, i32 0, metadata !909, metadata !"A2", metadata !"A2", metadata !"_ZN2A2C2Ev", metadata !909, i32 20, metadata !1001, i1 false, i1 true, i32 0, i32 0, i32 0, i32 320, i1 false, void (%class.A2*)* @_ZN2A2C2Ev} ; [ DW_TAG_subprogram ]
!1009 = metadata !{i32 589870, i32 0, metadata !909, metadata !"goo", metadata !"goo", metadata !"_ZN2A23gooEv", metadata !909, i32 22, metadata !52, i1 false, i1 true, i32 0, i32 0, i32 0, i32 256, i1 false, i32 (%class.A2*)* @_ZN2A23gooEv} ; [ DW_TAG_subprogram ]
!1010 = metadata !{i32 589870, i32 0, metadata !909, metadata !"A", metadata !"A", metadata !"_ZN1AC2Ei", metadata !909, i32 13, metadata !1001, i1 false, i1 true, i32 0, i32 0, i32 0, i32 256, i1 false, void (%class.A*, i32)* @_ZN1AC2Ei} ; [ DW_TAG_subprogram ]
!1011 = metadata !{i32 589870, i32 0, metadata !909, metadata !"foo", metadata !"foo", metadata !"_ZN1A3fooEc", metadata !909, i32 15, metadata !995, i1 false, i1 true, i32 0, i32 0, i32 0, i32 256, i1 false, i8 (%class.A*, i8)* @_ZN1A3fooEc} ; [ DW_TAG_subprogram ]
!1012 = metadata !{i32 589870, i32 0, metadata !909, metadata !"B", metadata !"B", metadata !"_ZN1BC1Ei", metadata !909, i32 26, metadata !1001, i1 false, i1 true, i32 0, i32 0, i32 0, i32 256, i1 false, void (%class.B*, i32)* @_ZN1BC1Ei} ; [ DW_TAG_subprogram ]
!1013 = metadata !{i32 589870, i32 0, metadata !909, metadata !"B", metadata !"B", metadata !"_ZN1BC2Ei", metadata !909, i32 26, metadata !1001, i1 false, i1 true, i32 0, i32 0, i32 0, i32 256, i1 false, void (%class.B*, i32)* @_ZN1BC2Ei} ; [ DW_TAG_subprogram ]
!1014 = metadata !{i32 589870, i32 0, metadata !909, metadata !"A2", metadata !"A2", metadata !"_ZN2A2C1Ev", metadata !909, i32 20, metadata !1001, i1 false, i1 true, i32 0, i32 0, i32 0, i32 320, i1 false, void (%class.A2*)* @_ZN2A2C1Ev} ; [ DW_TAG_subprogram ]
!1015 = metadata !{i32 589870, i32 0, metadata !909, metadata !"A", metadata !"A", metadata !"_ZN1AC1Ei", metadata !909, i32 13, metadata !1001, i1 false, i1 true, i32 0, i32 0, i32 0, i32 256, i1 false, void (%class.A*, i32)* @_ZN1AC1Ei} ; [ DW_TAG_subprogram ]
!1016 = metadata !{i32 590080, metadata !1017, metadata !"a", metadata !909, i32 40, metadata !1018, i32 0} ; [ DW_TAG_auto_variable ]
!1017 = metadata !{i32 589835, metadata !908, i32 39, i32 12, metadata !909, i32 0} ; [ DW_TAG_lexical_block ]
!1018 = metadata !{i32 589839, metadata !2, metadata !"", null, i32 0, i64 64, i64 64, i64 0, i32 0, metadata !911} ; [ DW_TAG_pointer_type ]
!1019 = metadata !{i32 40, i32 6, metadata !1017, null}
!1020 = metadata !{i32 40, i32 18, metadata !1017, null}
!1021 = metadata !{i32 590080, metadata !1017, metadata !"a2", metadata !909, i32 41, metadata !1022, i32 0} ; [ DW_TAG_auto_variable ]
!1022 = metadata !{i32 589839, metadata !2, metadata !"", null, i32 0, i64 64, i64 64, i64 0, i32 0, metadata !934} ; [ DW_TAG_pointer_type ]
!1023 = metadata !{i32 41, i32 7, metadata !1017, null}
!1024 = metadata !{i32 41, i32 20, metadata !1017, null}
!1025 = metadata !{i32 590080, metadata !1017, metadata !"b", metadata !909, i32 42, metadata !1026, i32 0} ; [ DW_TAG_auto_variable ]
!1026 = metadata !{i32 589839, metadata !2, metadata !"", null, i32 0, i64 64, i64 64, i64 0, i32 0, metadata !944} ; [ DW_TAG_pointer_type ]
!1027 = metadata !{i32 42, i32 6, metadata !1017, null}
!1028 = metadata !{i32 42, i32 18, metadata !1017, null}
!1029 = metadata !{i32 590080, metadata !1017, metadata !"d", metadata !909, i32 43, metadata !1030, i32 0} ; [ DW_TAG_auto_variable ]
!1030 = metadata !{i32 589839, metadata !2, metadata !"", null, i32 0, i64 64, i64 64, i64 0, i32 0, metadata !974} ; [ DW_TAG_pointer_type ]
!1031 = metadata !{i32 43, i32 6, metadata !1017, null}
!1032 = metadata !{i32 43, i32 17, metadata !1017, null}
!1033 = metadata !{i32 590080, metadata !1017, metadata !"x", metadata !909, i32 44, metadata !1018, i32 0} ; [ DW_TAG_auto_variable ]
!1034 = metadata !{i32 44, i32 6, metadata !1017, null}
!1035 = metadata !{i32 44, i32 11, metadata !1017, null}
!1036 = metadata !{i32 590080, metadata !1017, metadata !"z", metadata !909, i32 45, metadata !1037, i32 0} ; [ DW_TAG_auto_variable ]
!1037 = metadata !{i32 589839, metadata !2, metadata !"", null, i32 0, i64 64, i64 64, i64 0, i32 0, metadata !984} ; [ DW_TAG_pointer_type ]
!1038 = metadata !{i32 45, i32 6, metadata !1017, null}
!1039 = metadata !{i32 590080, metadata !1017, metadata !"c", metadata !909, i32 46, metadata !972, i32 0} ; [ DW_TAG_auto_variable ]
!1040 = metadata !{i32 46, i32 6, metadata !1017, null}
!1041 = metadata !{i32 47, i32 3, metadata !1017, null}
!1042 = metadata !{i8 (%class.C*)* @_ZN1D3fooEv}
!1043 = metadata !{i32 48, i32 3, metadata !1017, null}
!1044 = metadata !{i8 (%class.B*)* @_ZN1B3fooEv}
!1045 = metadata !{i32 (%class.B*, i32)* @_ZN1B3fooEi}
!1046 = metadata !{i32 49, i32 3, metadata !1017, null}
!1047 = metadata !{i8 (%class.A*)* @_ZN1A3fooEv}
!1048 = metadata !{i32 (%class.A*, i32)* @_ZN1A3fooEi}
!1049 = metadata !{i32 50, i32 3, metadata !1017, null}
!1050 = metadata !{i32 51, i32 3, metadata !1017, null}
!1051 = metadata !{i32 52, i32 3, metadata !1017, null}
!1052 = metadata !{i32 53, i32 3, metadata !1017, null}
!1053 = metadata !{i32 54, i32 3, metadata !1017, null}
!1054 = metadata !{i32 590081, metadata !1015, metadata !"this", metadata !909, i32 16777229, metadata !1018, i32 64} ; [ DW_TAG_arg_variable ]
!1055 = metadata !{i32 13, i32 3, metadata !1015, null}
!1056 = metadata !{i32 590081, metadata !1015, metadata !"x", metadata !909, i32 33554445, metadata !54, i32 0} ; [ DW_TAG_arg_variable ]
!1057 = metadata !{i32 13, i32 9, metadata !1015, null}
!1058 = metadata !{i32 590081, metadata !1014, metadata !"this", metadata !909, i32 16777236, metadata !1022, i32 64} ; [ DW_TAG_arg_variable ]
!1059 = metadata !{i32 20, i32 7, metadata !1014, null}
!1060 = metadata !{i32 590081, metadata !1012, metadata !"this", metadata !909, i32 16777242, metadata !1026, i32 64} ; [ DW_TAG_arg_variable ]
!1061 = metadata !{i32 26, i32 3, metadata !1012, null}
!1062 = metadata !{i32 590081, metadata !1012, metadata !"x", metadata !909, i32 33554458, metadata !54, i32 0} ; [ DW_TAG_arg_variable ]
!1063 = metadata !{i32 26, i32 9, metadata !1012, null}
!1064 = metadata !{i32 590081, metadata !1000, metadata !"this", metadata !909, i32 16777251, metadata !1030, i32 64} ; [ DW_TAG_arg_variable ]
!1065 = metadata !{i32 35, i32 7, metadata !1000, null}
!1066 = metadata !{i32 590081, metadata !999, metadata !"this", metadata !909, i32 16777253, metadata !1030, i32 64} ; [ DW_TAG_arg_variable ]
!1067 = metadata !{i32 37, i32 14, metadata !999, null}
!1068 = metadata !{i32 37, i32 21, metadata !1069, null}
!1069 = metadata !{i32 589835, metadata !999, i32 37, i32 20, metadata !909, i32 5} ; [ DW_TAG_lexical_block ]
!1070 = metadata !{i32 590081, metadata !998, metadata !"this", metadata !909, i32 16777244, metadata !1026, i32 64} ; [ DW_TAG_arg_variable ]
!1071 = metadata !{i32 28, i32 16, metadata !998, null}
!1072 = metadata !{i32 28, i32 23, metadata !1073, null}
!1073 = metadata !{i32 589835, metadata !998, i32 28, i32 22, metadata !909, i32 4} ; [ DW_TAG_lexical_block ]
!1074 = metadata !{i32 590081, metadata !997, metadata !"this", metadata !909, i32 16777246, metadata !1026, i32 64} ; [ DW_TAG_arg_variable ]
!1075 = metadata !{i32 30, i32 15, metadata !997, null}
!1076 = metadata !{i32 590081, metadata !997, metadata !"x", metadata !909, i32 33554462, metadata !54, i32 0} ; [ DW_TAG_arg_variable ]
!1077 = metadata !{i32 30, i32 23, metadata !997, null}
!1078 = metadata !{i32 30, i32 27, metadata !1079, null}
!1079 = metadata !{i32 589835, metadata !997, i32 30, i32 26, metadata !909, i32 3} ; [ DW_TAG_lexical_block ]
!1080 = metadata !{i32 590081, metadata !994, metadata !"this", metadata !909, i32 16777230, metadata !1018, i32 64} ; [ DW_TAG_arg_variable ]
!1081 = metadata !{i32 14, i32 16, metadata !994, null}
!1082 = metadata !{i32 14, i32 23, metadata !1083, null}
!1083 = metadata !{i32 589835, metadata !994, i32 14, i32 22, metadata !909, i32 2} ; [ DW_TAG_lexical_block ]
!1084 = metadata !{i32 590081, metadata !993, metadata !"this", metadata !909, i32 16777232, metadata !1018, i32 64} ; [ DW_TAG_arg_variable ]
!1085 = metadata !{i32 16, i32 15, metadata !993, null}
!1086 = metadata !{i32 590081, metadata !993, metadata !"x", metadata !909, i32 33554448, metadata !54, i32 0} ; [ DW_TAG_arg_variable ]
!1087 = metadata !{i32 16, i32 23, metadata !993, null}
!1088 = metadata !{i32 16, i32 27, metadata !1089, null}
!1089 = metadata !{i32 589835, metadata !993, i32 16, i32 26, metadata !909, i32 1} ; [ DW_TAG_lexical_block ]
!1090 = metadata !{i32 590081, metadata !1002, metadata !"this", metadata !909, i32 16777251, metadata !1030, i32 64} ; [ DW_TAG_arg_variable ]
!1091 = metadata !{i32 35, i32 7, metadata !1002, null}
!1092 = metadata !{i32 35, i32 7, metadata !1093, null}
!1093 = metadata !{i32 589835, metadata !1002, i32 35, i32 7, metadata !909, i32 6} ; [ DW_TAG_lexical_block ]
!1094 = metadata !{i32 590081, metadata !1006, metadata !"this", metadata !909, i32 16777249, metadata !972, i32 64} ; [ DW_TAG_arg_variable ]
!1095 = metadata !{i32 33, i32 7, metadata !1006, null}
!1096 = metadata !{i32 33, i32 7, metadata !1097, null}
!1097 = metadata !{i32 589835, metadata !1006, i32 33, i32 7, metadata !909, i32 10} ; [ DW_TAG_lexical_block ]
!1098 = metadata !{i32 590081, metadata !1005, metadata !"this", metadata !909, i32 16777245, metadata !1026, i32 64} ; [ DW_TAG_arg_variable ]
!1099 = metadata !{i32 29, i32 16, metadata !1005, null}
!1100 = metadata !{i32 590081, metadata !1005, metadata !"y", metadata !909, i32 33554461, metadata !164, i32 0} ; [ DW_TAG_arg_variable ]
!1101 = metadata !{i32 29, i32 25, metadata !1005, null}
!1102 = metadata !{i32 29, i32 29, metadata !1103, null}
!1103 = metadata !{i32 589835, metadata !1005, i32 29, i32 28, metadata !909, i32 9} ; [ DW_TAG_lexical_block ]
!1104 = metadata !{i32 590081, metadata !1004, metadata !"this", metadata !909, i32 16777234, metadata !1018, i32 64} ; [ DW_TAG_arg_variable ]
!1105 = metadata !{i32 18, i32 15, metadata !1004, null}
!1106 = metadata !{i32 590081, metadata !1004, metadata !"a", metadata !909, i32 33554450, metadata !1107, i32 0} ; [ DW_TAG_arg_variable ]
!1107 = metadata !{i32 589840, metadata !2, null, null, i32 0, i64 0, i64 0, i64 0, i32 0, metadata !911} ; [ DW_TAG_reference_type ]
!1108 = metadata !{i32 18, i32 27, metadata !1004, null}
!1109 = metadata !{i32 18, i32 31, metadata !1110, null}
!1110 = metadata !{i32 589835, metadata !1004, i32 18, i32 30, metadata !909, i32 8} ; [ DW_TAG_lexical_block ]
!1111 = metadata !{i32 590081, metadata !1003, metadata !"this", metadata !909, i32 16777247, metadata !1026, i32 64} ; [ DW_TAG_arg_variable ]
!1112 = metadata !{i32 31, i32 15, metadata !1003, null}
!1113 = metadata !{i32 31, i32 22, metadata !1114, null}
!1114 = metadata !{i32 589835, metadata !1003, i32 31, i32 21, metadata !909, i32 7} ; [ DW_TAG_lexical_block ]
!1115 = metadata !{i32 590081, metadata !1007, metadata !"this", metadata !909, i32 16777243, metadata !1026, i32 64} ; [ DW_TAG_arg_variable ]
!1116 = metadata !{i32 27, i32 3, metadata !1007, null}
!1117 = metadata !{i32 27, i32 15, metadata !1118, null}
!1118 = metadata !{i32 589835, metadata !1007, i32 27, i32 14, metadata !909, i32 11} ; [ DW_TAG_lexical_block ]
!1119 = metadata !{i32 590081, metadata !1010, metadata !"this", metadata !909, i32 16777229, metadata !1018, i32 64} ; [ DW_TAG_arg_variable ]
!1120 = metadata !{i32 13, i32 3, metadata !1010, null}
!1121 = metadata !{i32 590081, metadata !1010, metadata !"x", metadata !909, i32 33554445, metadata !54, i32 0} ; [ DW_TAG_arg_variable ]
!1122 = metadata !{i32 13, i32 9, metadata !1010, null}
!1123 = metadata !{i32 13, i32 20, metadata !1124, null}
!1124 = metadata !{i32 589835, metadata !1010, i32 13, i32 19, metadata !909, i32 14} ; [ DW_TAG_lexical_block ]
!1125 = metadata !{i32 590081, metadata !1008, metadata !"this", metadata !909, i32 16777236, metadata !1022, i32 64} ; [ DW_TAG_arg_variable ]
!1126 = metadata !{i32 20, i32 7, metadata !1008, null}
!1127 = metadata !{i32 20, i32 7, metadata !1128, null}
!1128 = metadata !{i32 589835, metadata !1008, i32 20, i32 7, metadata !909, i32 12} ; [ DW_TAG_lexical_block ]
!1129 = metadata !{i32 590081, metadata !1009, metadata !"this", metadata !909, i32 16777238, metadata !1022, i32 64} ; [ DW_TAG_arg_variable ]
!1130 = metadata !{i32 22, i32 15, metadata !1009, null}
!1131 = metadata !{i32 22, i32 22, metadata !1132, null}
!1132 = metadata !{i32 589835, metadata !1009, i32 22, i32 21, metadata !909, i32 13} ; [ DW_TAG_lexical_block ]
!1133 = metadata !{i32 590081, metadata !1011, metadata !"this", metadata !909, i32 16777231, metadata !1018, i32 64} ; [ DW_TAG_arg_variable ]
!1134 = metadata !{i32 15, i32 16, metadata !1011, null}
!1135 = metadata !{i32 590081, metadata !1011, metadata !"y", metadata !909, i32 33554447, metadata !164, i32 0} ; [ DW_TAG_arg_variable ]
!1136 = metadata !{i32 15, i32 25, metadata !1011, null}
!1137 = metadata !{i32 15, i32 29, metadata !1138, null}
!1138 = metadata !{i32 589835, metadata !1011, i32 15, i32 28, metadata !909, i32 15} ; [ DW_TAG_lexical_block ]
!1139 = metadata !{i32 590081, metadata !1013, metadata !"this", metadata !909, i32 16777242, metadata !1026, i32 64} ; [ DW_TAG_arg_variable ]
!1140 = metadata !{i32 26, i32 3, metadata !1013, null}
!1141 = metadata !{i32 590081, metadata !1013, metadata !"x", metadata !909, i32 33554458, metadata !54, i32 0} ; [ DW_TAG_arg_variable ]
!1142 = metadata !{i32 26, i32 9, metadata !1013, null}
!1143 = metadata !{i32 26, i32 20, metadata !1144, null}
!1144 = metadata !{i32 589835, metadata !1013, i32 26, i32 19, metadata !909, i32 16} ; [ DW_TAG_lexical_block ]
